
rv32uf-v-recoding:     file format elf32-littleriscv


Disassembly of section .text.init:

80000000 <_start>:
80000000:	00c0006f          	j	8000000c <handle_reset>

80000004 <nmi_vector>:
80000004:	27c0206f          	j	80002280 <wtf>

80000008 <trap_vector>:
80000008:	2780206f          	j	80002280 <wtf>

8000000c <handle_reset>:
8000000c:	00000093          	li	ra,0
80000010:	00000113          	li	sp,0
80000014:	00000193          	li	gp,0
80000018:	00000213          	li	tp,0
8000001c:	00000293          	li	t0,0
80000020:	00000313          	li	t1,0
80000024:	00000393          	li	t2,0
80000028:	00000413          	li	s0,0
8000002c:	00000493          	li	s1,0
80000030:	00000513          	li	a0,0
80000034:	00000593          	li	a1,0
80000038:	00000613          	li	a2,0
8000003c:	00000693          	li	a3,0
80000040:	00000713          	li	a4,0
80000044:	00000793          	li	a5,0
80000048:	00000813          	li	a6,0
8000004c:	00000893          	li	a7,0
80000050:	00000913          	li	s2,0
80000054:	00000993          	li	s3,0
80000058:	00000a13          	li	s4,0
8000005c:	00000a93          	li	s5,0
80000060:	00000b13          	li	s6,0
80000064:	00000b93          	li	s7,0
80000068:	00000c13          	li	s8,0
8000006c:	00000c93          	li	s9,0
80000070:	00000d13          	li	s10,0
80000074:	00000d93          	li	s11,0
80000078:	00000e13          	li	t3,0
8000007c:	00000e93          	li	t4,0
80000080:	00000f13          	li	t5,0
80000084:	00000f93          	li	t6,0
80000088:	00000297          	auipc	t0,0x0
8000008c:	f8028293          	addi	t0,t0,-128 # 80000008 <trap_vector>
80000090:	30529073          	csrw	mtvec,t0
80000094:	00007117          	auipc	sp,0x7
80000098:	2d410113          	addi	sp,sp,724 # 80007368 <_end+0xf70>
8000009c:	f14022f3          	csrr	t0,mhartid
800000a0:	00c29293          	slli	t0,t0,0xc
800000a4:	00510133          	add	sp,sp,t0
800000a8:	34011073          	csrw	mscratch,sp
800000ac:	3a1020ef          	jal	ra,80002c4c <extra_boot>
800000b0:	00003517          	auipc	a0,0x3
800000b4:	ba050513          	addi	a0,a0,-1120 # 80002c50 <userstart>
800000b8:	15d0206f          	j	80002a14 <vm_boot>

800000bc <pop_tf>:
800000bc:	08452283          	lw	t0,132(a0)
800000c0:	14129073          	csrw	sepc,t0
800000c4:	00452083          	lw	ra,4(a0)
800000c8:	00852103          	lw	sp,8(a0)
800000cc:	00c52183          	lw	gp,12(a0)
800000d0:	01052203          	lw	tp,16(a0)
800000d4:	01452283          	lw	t0,20(a0)
800000d8:	01852303          	lw	t1,24(a0)
800000dc:	01c52383          	lw	t2,28(a0)
800000e0:	02052403          	lw	s0,32(a0)
800000e4:	02452483          	lw	s1,36(a0)
800000e8:	02c52583          	lw	a1,44(a0)
800000ec:	03052603          	lw	a2,48(a0)
800000f0:	03452683          	lw	a3,52(a0)
800000f4:	03852703          	lw	a4,56(a0)
800000f8:	03c52783          	lw	a5,60(a0)
800000fc:	04052803          	lw	a6,64(a0)
80000100:	04452883          	lw	a7,68(a0)
80000104:	04852903          	lw	s2,72(a0)
80000108:	04c52983          	lw	s3,76(a0)
8000010c:	05052a03          	lw	s4,80(a0)
80000110:	05452a83          	lw	s5,84(a0)
80000114:	05852b03          	lw	s6,88(a0)
80000118:	05c52b83          	lw	s7,92(a0)
8000011c:	06052c03          	lw	s8,96(a0)
80000120:	06452c83          	lw	s9,100(a0)
80000124:	06852d03          	lw	s10,104(a0)
80000128:	06c52d83          	lw	s11,108(a0)
8000012c:	07052e03          	lw	t3,112(a0)
80000130:	07452e83          	lw	t4,116(a0)
80000134:	07852f03          	lw	t5,120(a0)
80000138:	07c52f83          	lw	t6,124(a0)
8000013c:	02852503          	lw	a0,40(a0)
80000140:	10200073          	sret

80000144 <trap_entry>:
80000144:	14011173          	csrrw	sp,sscratch,sp
80000148:	00112223          	sw	ra,4(sp)
8000014c:	00312623          	sw	gp,12(sp)
80000150:	00412823          	sw	tp,16(sp)
80000154:	00512a23          	sw	t0,20(sp)
80000158:	00612c23          	sw	t1,24(sp)
8000015c:	00712e23          	sw	t2,28(sp)
80000160:	02812023          	sw	s0,32(sp)
80000164:	02912223          	sw	s1,36(sp)
80000168:	02a12423          	sw	a0,40(sp)
8000016c:	02b12623          	sw	a1,44(sp)
80000170:	02c12823          	sw	a2,48(sp)
80000174:	02d12a23          	sw	a3,52(sp)
80000178:	02e12c23          	sw	a4,56(sp)
8000017c:	02f12e23          	sw	a5,60(sp)
80000180:	05012023          	sw	a6,64(sp)
80000184:	05112223          	sw	a7,68(sp)
80000188:	05212423          	sw	s2,72(sp)
8000018c:	05312623          	sw	s3,76(sp)
80000190:	05412823          	sw	s4,80(sp)
80000194:	05512a23          	sw	s5,84(sp)
80000198:	05612c23          	sw	s6,88(sp)
8000019c:	05712e23          	sw	s7,92(sp)
800001a0:	07812023          	sw	s8,96(sp)
800001a4:	07912223          	sw	s9,100(sp)
800001a8:	07a12423          	sw	s10,104(sp)
800001ac:	07b12623          	sw	s11,108(sp)
800001b0:	07c12823          	sw	t3,112(sp)
800001b4:	07d12a23          	sw	t4,116(sp)
800001b8:	07e12c23          	sw	t5,120(sp)
800001bc:	07f12e23          	sw	t6,124(sp)
800001c0:	140112f3          	csrrw	t0,sscratch,sp
800001c4:	00512423          	sw	t0,8(sp)
800001c8:	100022f3          	csrr	t0,sstatus
800001cc:	08512023          	sw	t0,128(sp)
800001d0:	141022f3          	csrr	t0,sepc
800001d4:	08512223          	sw	t0,132(sp)
800001d8:	143022f3          	csrr	t0,stval
800001dc:	08512423          	sw	t0,136(sp)
800001e0:	142022f3          	csrr	t0,scause
800001e4:	08512623          	sw	t0,140(sp)
800001e8:	00010513          	mv	a0,sp
800001ec:	4700206f          	j	8000265c <handle_trap>

Disassembly of section .text:

80002000 <memcpy>:
80002000:	00c5e7b3          	or	a5,a1,a2
80002004:	00f567b3          	or	a5,a0,a5
80002008:	0037f793          	andi	a5,a5,3
8000200c:	00c506b3          	add	a3,a0,a2
80002010:	02078463          	beqz	a5,80002038 <memcpy+0x38>
80002014:	00c58633          	add	a2,a1,a2
80002018:	00050793          	mv	a5,a0
8000201c:	02d57e63          	bgeu	a0,a3,80002058 <memcpy+0x58>
80002020:	0005c703          	lbu	a4,0(a1)
80002024:	00158593          	addi	a1,a1,1
80002028:	00178793          	addi	a5,a5,1
8000202c:	fee78fa3          	sb	a4,-1(a5)
80002030:	fec598e3          	bne	a1,a2,80002020 <memcpy+0x20>
80002034:	00008067          	ret
80002038:	fed57ee3          	bgeu	a0,a3,80002034 <memcpy+0x34>
8000203c:	00050793          	mv	a5,a0
80002040:	0005a703          	lw	a4,0(a1)
80002044:	00478793          	addi	a5,a5,4
80002048:	00458593          	addi	a1,a1,4
8000204c:	fee7ae23          	sw	a4,-4(a5)
80002050:	fed7e8e3          	bltu	a5,a3,80002040 <memcpy+0x40>
80002054:	00008067          	ret
80002058:	00008067          	ret

8000205c <memset>:
8000205c:	00c567b3          	or	a5,a0,a2
80002060:	0037f793          	andi	a5,a5,3
80002064:	00c50633          	add	a2,a0,a2
80002068:	02078063          	beqz	a5,80002088 <memset+0x2c>
8000206c:	0ff5f593          	andi	a1,a1,255
80002070:	00050793          	mv	a5,a0
80002074:	04c57063          	bgeu	a0,a2,800020b4 <memset+0x58>
80002078:	00178793          	addi	a5,a5,1
8000207c:	feb78fa3          	sb	a1,-1(a5)
80002080:	fef61ce3          	bne	a2,a5,80002078 <memset+0x1c>
80002084:	00008067          	ret
80002088:	0ff5f593          	andi	a1,a1,255
8000208c:	00859793          	slli	a5,a1,0x8
80002090:	00b7e7b3          	or	a5,a5,a1
80002094:	01079593          	slli	a1,a5,0x10
80002098:	00f5e5b3          	or	a1,a1,a5
8000209c:	fec574e3          	bgeu	a0,a2,80002084 <memset+0x28>
800020a0:	00050793          	mv	a5,a0
800020a4:	00478793          	addi	a5,a5,4
800020a8:	feb7ae23          	sw	a1,-4(a5)
800020ac:	fec7ece3          	bltu	a5,a2,800020a4 <memset+0x48>
800020b0:	00008067          	ret
800020b4:	00008067          	ret

800020b8 <strlen>:
800020b8:	00054783          	lbu	a5,0(a0)
800020bc:	00078e63          	beqz	a5,800020d8 <strlen+0x20>
800020c0:	00050793          	mv	a5,a0
800020c4:	0017c703          	lbu	a4,1(a5)
800020c8:	00178793          	addi	a5,a5,1
800020cc:	fe071ce3          	bnez	a4,800020c4 <strlen+0xc>
800020d0:	40a78533          	sub	a0,a5,a0
800020d4:	00008067          	ret
800020d8:	00000513          	li	a0,0
800020dc:	00008067          	ret

800020e0 <strcmp>:
800020e0:	00054783          	lbu	a5,0(a0)
800020e4:	00158593          	addi	a1,a1,1
800020e8:	00150513          	addi	a0,a0,1
800020ec:	fff5c703          	lbu	a4,-1(a1)
800020f0:	00078863          	beqz	a5,80002100 <strcmp+0x20>
800020f4:	fee786e3          	beq	a5,a4,800020e0 <strcmp>
800020f8:	40e78533          	sub	a0,a5,a4
800020fc:	00008067          	ret
80002100:	00000793          	li	a5,0
80002104:	ff5ff06f          	j	800020f8 <strcmp+0x18>

80002108 <memcmp>:
80002108:	00b567b3          	or	a5,a0,a1
8000210c:	0037f793          	andi	a5,a5,3
80002110:	02079e63          	bnez	a5,8000214c <memcmp+0x44>
80002114:	ffc67813          	andi	a6,a2,-4
80002118:	01050833          	add	a6,a0,a6
8000211c:	03057863          	bgeu	a0,a6,8000214c <memcmp+0x44>
80002120:	00050793          	mv	a5,a0
80002124:	0100006f          	j	80002134 <memcmp+0x2c>
80002128:	00478793          	addi	a5,a5,4
8000212c:	00458593          	addi	a1,a1,4
80002130:	0107f863          	bgeu	a5,a6,80002140 <memcmp+0x38>
80002134:	0007a683          	lw	a3,0(a5)
80002138:	0005a703          	lw	a4,0(a1)
8000213c:	fee686e3          	beq	a3,a4,80002128 <memcmp+0x20>
80002140:	40a78533          	sub	a0,a5,a0
80002144:	40a60633          	sub	a2,a2,a0
80002148:	00078513          	mv	a0,a5
8000214c:	00c58633          	add	a2,a1,a2
80002150:	0140006f          	j	80002164 <memcmp+0x5c>
80002154:	0005c703          	lbu	a4,0(a1)
80002158:	fff54783          	lbu	a5,-1(a0)
8000215c:	00158593          	addi	a1,a1,1
80002160:	00e79a63          	bne	a5,a4,80002174 <memcmp+0x6c>
80002164:	00150513          	addi	a0,a0,1
80002168:	fec596e3          	bne	a1,a2,80002154 <memcmp+0x4c>
8000216c:	00000513          	li	a0,0
80002170:	00008067          	ret
80002174:	40e78533          	sub	a0,a5,a4
80002178:	00008067          	ret

8000217c <strcpy>:
8000217c:	00050793          	mv	a5,a0
80002180:	0005c703          	lbu	a4,0(a1)
80002184:	00178793          	addi	a5,a5,1
80002188:	00158593          	addi	a1,a1,1
8000218c:	fee78fa3          	sb	a4,-1(a5)
80002190:	fe0718e3          	bnez	a4,80002180 <strcpy+0x4>
80002194:	00008067          	ret

80002198 <atol>:
80002198:	00054703          	lbu	a4,0(a0)
8000219c:	02000693          	li	a3,32
800021a0:	00050793          	mv	a5,a0
800021a4:	00d71863          	bne	a4,a3,800021b4 <atol+0x1c>
800021a8:	0017c703          	lbu	a4,1(a5)
800021ac:	00178793          	addi	a5,a5,1
800021b0:	fed70ce3          	beq	a4,a3,800021a8 <atol+0x10>
800021b4:	02d00693          	li	a3,45
800021b8:	06d70063          	beq	a4,a3,80002218 <atol+0x80>
800021bc:	02b00693          	li	a3,43
800021c0:	04d70063          	beq	a4,a3,80002200 <atol+0x68>
800021c4:	0007c683          	lbu	a3,0(a5)
800021c8:	00000593          	li	a1,0
800021cc:	04068263          	beqz	a3,80002210 <atol+0x78>
800021d0:	00000513          	li	a0,0
800021d4:	00178793          	addi	a5,a5,1
800021d8:	fd068613          	addi	a2,a3,-48
800021dc:	00251713          	slli	a4,a0,0x2
800021e0:	0007c683          	lbu	a3,0(a5)
800021e4:	00a70533          	add	a0,a4,a0
800021e8:	00151513          	slli	a0,a0,0x1
800021ec:	00a60533          	add	a0,a2,a0
800021f0:	fe0692e3          	bnez	a3,800021d4 <atol+0x3c>
800021f4:	02058063          	beqz	a1,80002214 <atol+0x7c>
800021f8:	40a00533          	neg	a0,a0
800021fc:	00008067          	ret
80002200:	0017c683          	lbu	a3,1(a5)
80002204:	00000593          	li	a1,0
80002208:	00178793          	addi	a5,a5,1
8000220c:	fc0692e3          	bnez	a3,800021d0 <atol+0x38>
80002210:	00000513          	li	a0,0
80002214:	00008067          	ret
80002218:	0017c683          	lbu	a3,1(a5)
8000221c:	00100593          	li	a1,1
80002220:	00178793          	addi	a5,a5,1
80002224:	fa0696e3          	bnez	a3,800021d0 <atol+0x38>
80002228:	00000513          	li	a0,0
8000222c:	fe9ff06f          	j	80002214 <atol+0x7c>

80002230 <terminate>:
80002230:	fffff617          	auipc	a2,0xfffff
80002234:	dd060613          	addi	a2,a2,-560 # 80001000 <tohost>
80002238:	00062703          	lw	a4,0(a2)
8000223c:	00462783          	lw	a5,4(a2)
80002240:	41f55593          	srai	a1,a0,0x1f
80002244:	00f76733          	or	a4,a4,a5
80002248:	02070663          	beqz	a4,80002274 <terminate+0x44>
8000224c:	fffff697          	auipc	a3,0xfffff
80002250:	df468693          	addi	a3,a3,-524 # 80001040 <fromhost>
80002254:	00000793          	li	a5,0
80002258:	00f6a023          	sw	a5,0(a3)
8000225c:	00000813          	li	a6,0
80002260:	0106a223          	sw	a6,4(a3)
80002264:	00062703          	lw	a4,0(a2)
80002268:	00462783          	lw	a5,4(a2)
8000226c:	00f76733          	or	a4,a4,a5
80002270:	fe0712e3          	bnez	a4,80002254 <terminate+0x24>
80002274:	00a62023          	sw	a0,0(a2)
80002278:	00b62223          	sw	a1,4(a2)
8000227c:	0000006f          	j	8000227c <terminate+0x4c>

80002280 <wtf>:
80002280:	ff010113          	addi	sp,sp,-16
80002284:	34900513          	li	a0,841
80002288:	00112623          	sw	ra,12(sp)
8000228c:	fa5ff0ef          	jal	ra,80002230 <terminate>

80002290 <printhex>:
80002290:	fe010113          	addi	sp,sp,-32
80002294:	00c10613          	addi	a2,sp,12
80002298:	01b10713          	addi	a4,sp,27
8000229c:	00900313          	li	t1,9
800022a0:	0080006f          	j	800022a8 <printhex+0x18>
800022a4:	00078713          	mv	a4,a5
800022a8:	00f57793          	andi	a5,a0,15
800022ac:	00f337b3          	sltu	a5,t1,a5
800022b0:	40f007b3          	neg	a5,a5
800022b4:	0277f793          	andi	a5,a5,39
800022b8:	00f57693          	andi	a3,a0,15
800022bc:	03078793          	addi	a5,a5,48
800022c0:	00f687b3          	add	a5,a3,a5
800022c4:	00f70023          	sb	a5,0(a4)
800022c8:	01c59693          	slli	a3,a1,0x1c
800022cc:	00455513          	srli	a0,a0,0x4
800022d0:	fff70793          	addi	a5,a4,-1
800022d4:	00a6e533          	or	a0,a3,a0
800022d8:	0045d593          	srli	a1,a1,0x4
800022dc:	fce614e3          	bne	a2,a4,800022a4 <printhex+0x14>
800022e0:	00c14503          	lbu	a0,12(sp)
800022e4:	00010e23          	sb	zero,28(sp)
800022e8:	06050263          	beqz	a0,8000234c <printhex+0xbc>
800022ec:	00060593          	mv	a1,a2
800022f0:	fffff697          	auipc	a3,0xfffff
800022f4:	d1068693          	addi	a3,a3,-752 # 80001000 <tohost>
800022f8:	fffff617          	auipc	a2,0xfffff
800022fc:	d4860613          	addi	a2,a2,-696 # 80001040 <fromhost>
80002300:	0006a703          	lw	a4,0(a3)
80002304:	0046a783          	lw	a5,4(a3)
80002308:	00050813          	mv	a6,a0
8000230c:	00158593          	addi	a1,a1,1
80002310:	00f76733          	or	a4,a4,a5
80002314:	010108b7          	lui	a7,0x1010
80002318:	02070263          	beqz	a4,8000233c <printhex+0xac>
8000231c:	00000713          	li	a4,0
80002320:	00e62023          	sw	a4,0(a2)
80002324:	00000793          	li	a5,0
80002328:	00f62223          	sw	a5,4(a2)
8000232c:	0006a703          	lw	a4,0(a3)
80002330:	0046a783          	lw	a5,4(a3)
80002334:	00f76733          	or	a4,a4,a5
80002338:	fe0712e3          	bnez	a4,8000231c <printhex+0x8c>
8000233c:	0005c503          	lbu	a0,0(a1)
80002340:	0106a023          	sw	a6,0(a3)
80002344:	0116a223          	sw	a7,4(a3)
80002348:	fa051ce3          	bnez	a0,80002300 <printhex+0x70>
8000234c:	02010113          	addi	sp,sp,32
80002350:	00008067          	ret

80002354 <handle_fault>:
80002354:	fffff637          	lui	a2,0xfffff
80002358:	00c50733          	add	a4,a0,a2
8000235c:	0003e7b7          	lui	a5,0x3e
80002360:	14f77063          	bgeu	a4,a5,800024a0 <handle_fault+0x14c>
80002364:	00c55693          	srli	a3,a0,0xc
80002368:	40068293          	addi	t0,a3,1024
8000236c:	00002317          	auipc	t1,0x2
80002370:	c9430313          	addi	t1,t1,-876 # 80004000 <pt>
80002374:	00229793          	slli	a5,t0,0x2
80002378:	00f307b3          	add	a5,t1,a5
8000237c:	0007a703          	lw	a4,0(a5) # 3e000 <_start-0x7ffc2000>
80002380:	00c57533          	and	a0,a0,a2
80002384:	02070663          	beqz	a4,800023b0 <handle_fault+0x5c>
80002388:	04077693          	andi	a3,a4,64
8000238c:	0e068c63          	beqz	a3,80002484 <handle_fault+0x130>
80002390:	08077693          	andi	a3,a4,128
80002394:	18069263          	bnez	a3,80002518 <handle_fault+0x1c4>
80002398:	00f00693          	li	a3,15
8000239c:	16d59e63          	bne	a1,a3,80002518 <handle_fault+0x1c4>
800023a0:	08076713          	ori	a4,a4,128
800023a4:	00e7a023          	sw	a4,0(a5)
800023a8:	12050073          	sfence.vma	a0
800023ac:	00008067          	ret
800023b0:	00004717          	auipc	a4,0x4
800023b4:	04470713          	addi	a4,a4,68 # 800063f4 <freelist_head>
800023b8:	00072583          	lw	a1,0(a4)
800023bc:	1c058463          	beqz	a1,80002584 <handle_fault+0x230>
800023c0:	0045a783          	lw	a5,4(a1)
800023c4:	00004617          	auipc	a2,0x4
800023c8:	02c62603          	lw	a2,44(a2) # 800063f0 <freelist_tail>
800023cc:	00f72023          	sw	a5,0(a4)
800023d0:	0cc78263          	beq	a5,a2,80002494 <handle_fault+0x140>
800023d4:	0005a703          	lw	a4,0(a1)
800023d8:	00229793          	slli	a5,t0,0x2
800023dc:	00f307b3          	add	a5,t1,a5
800023e0:	00c75713          	srli	a4,a4,0xc
800023e4:	00a71713          	slli	a4,a4,0xa
800023e8:	0df76e13          	ori	t3,a4,223
800023ec:	01f76613          	ori	a2,a4,31
800023f0:	01c7a023          	sw	t3,0(a5)
800023f4:	12050073          	sfence.vma	a0
800023f8:	00004797          	auipc	a5,0x4
800023fc:	e0078793          	addi	a5,a5,-512 # 800061f8 <user_mapping>
80002400:	00369693          	slli	a3,a3,0x3
80002404:	00d786b3          	add	a3,a5,a3
80002408:	0006a783          	lw	a5,0(a3)
8000240c:	1e079263          	bnez	a5,800025f0 <handle_fault+0x29c>
80002410:	0005a783          	lw	a5,0(a1)
80002414:	00f6a023          	sw	a5,0(a3)
80002418:	0045a783          	lw	a5,4(a1)
8000241c:	000405b7          	lui	a1,0x40
80002420:	00f6a223          	sw	a5,4(a3)
80002424:	1005a5f3          	csrrs	a1,sstatus,a1
80002428:	ffc007b7          	lui	a5,0xffc00
8000242c:	00f507b3          	add	a5,a0,a5
80002430:	000016b7          	lui	a3,0x1
80002434:	00050713          	mv	a4,a0
80002438:	00d786b3          	add	a3,a5,a3
8000243c:	0007ae83          	lw	t4,0(a5) # ffc00000 <_end+0x7fbf9c08>
80002440:	0047ae03          	lw	t3,4(a5)
80002444:	0087a883          	lw	a7,8(a5)
80002448:	00c7a803          	lw	a6,12(a5)
8000244c:	01d72023          	sw	t4,0(a4)
80002450:	01c72223          	sw	t3,4(a4)
80002454:	01172423          	sw	a7,8(a4)
80002458:	01072623          	sw	a6,12(a4)
8000245c:	01078793          	addi	a5,a5,16
80002460:	01070713          	addi	a4,a4,16
80002464:	fcd79ce3          	bne	a5,a3,8000243c <handle_fault+0xe8>
80002468:	10059073          	csrw	sstatus,a1
8000246c:	00229793          	slli	a5,t0,0x2
80002470:	00f307b3          	add	a5,t1,a5
80002474:	00c7a023          	sw	a2,0(a5)
80002478:	12050073          	sfence.vma	a0
8000247c:	0000100f          	fence.i
80002480:	00008067          	ret
80002484:	04076713          	ori	a4,a4,64
80002488:	00e7a023          	sw	a4,0(a5)
8000248c:	12050073          	sfence.vma	a0
80002490:	00008067          	ret
80002494:	00004797          	auipc	a5,0x4
80002498:	f407ae23          	sw	zero,-164(a5) # 800063f0 <freelist_tail>
8000249c:	f39ff06f          	j	800023d4 <handle_fault+0x80>
800024a0:	04100513          	li	a0,65
800024a4:	00001597          	auipc	a1,0x1
800024a8:	85458593          	addi	a1,a1,-1964 # 80002cf8 <pass+0xc>
800024ac:	fffff697          	auipc	a3,0xfffff
800024b0:	b5468693          	addi	a3,a3,-1196 # 80001000 <tohost>
800024b4:	fffff617          	auipc	a2,0xfffff
800024b8:	b8c60613          	addi	a2,a2,-1140 # 80001040 <fromhost>
800024bc:	0006a703          	lw	a4,0(a3)
800024c0:	0046a783          	lw	a5,4(a3)
800024c4:	00050313          	mv	t1,a0
800024c8:	00158593          	addi	a1,a1,1
800024cc:	00f76733          	or	a4,a4,a5
800024d0:	010103b7          	lui	t2,0x1010
800024d4:	02070263          	beqz	a4,800024f8 <handle_fault+0x1a4>
800024d8:	00000793          	li	a5,0
800024dc:	00f62023          	sw	a5,0(a2)
800024e0:	00000813          	li	a6,0
800024e4:	01062223          	sw	a6,4(a2)
800024e8:	0006a703          	lw	a4,0(a3)
800024ec:	0046a783          	lw	a5,4(a3)
800024f0:	00f76733          	or	a4,a4,a5
800024f4:	fe0712e3          	bnez	a4,800024d8 <handle_fault+0x184>
800024f8:	0005c503          	lbu	a0,0(a1)
800024fc:	0066a023          	sw	t1,0(a3)
80002500:	0076a223          	sw	t2,4(a3)
80002504:	fa051ce3          	bnez	a0,800024bc <handle_fault+0x168>
80002508:	ff010113          	addi	sp,sp,-16
8000250c:	00300513          	li	a0,3
80002510:	00112623          	sw	ra,12(sp)
80002514:	d1dff0ef          	jal	ra,80002230 <terminate>
80002518:	04100513          	li	a0,65
8000251c:	00001597          	auipc	a1,0x1
80002520:	82058593          	addi	a1,a1,-2016 # 80002d3c <pass+0x50>
80002524:	fffff697          	auipc	a3,0xfffff
80002528:	adc68693          	addi	a3,a3,-1316 # 80001000 <tohost>
8000252c:	fffff617          	auipc	a2,0xfffff
80002530:	b1460613          	addi	a2,a2,-1260 # 80001040 <fromhost>
80002534:	0006a703          	lw	a4,0(a3)
80002538:	0046a783          	lw	a5,4(a3)
8000253c:	00050e13          	mv	t3,a0
80002540:	00158593          	addi	a1,a1,1
80002544:	00f76733          	or	a4,a4,a5
80002548:	01010eb7          	lui	t4,0x1010
8000254c:	02070263          	beqz	a4,80002570 <handle_fault+0x21c>
80002550:	00000793          	li	a5,0
80002554:	00f62023          	sw	a5,0(a2)
80002558:	00000813          	li	a6,0
8000255c:	01062223          	sw	a6,4(a2)
80002560:	0006a703          	lw	a4,0(a3)
80002564:	0046a783          	lw	a5,4(a3)
80002568:	00f76733          	or	a4,a4,a5
8000256c:	fe0712e3          	bnez	a4,80002550 <handle_fault+0x1fc>
80002570:	0005c503          	lbu	a0,0(a1)
80002574:	01c6a023          	sw	t3,0(a3)
80002578:	01d6a223          	sw	t4,4(a3)
8000257c:	fa051ce3          	bnez	a0,80002534 <handle_fault+0x1e0>
80002580:	f89ff06f          	j	80002508 <handle_fault+0x1b4>
80002584:	04100513          	li	a0,65
80002588:	00000597          	auipc	a1,0x0
8000258c:	7fc58593          	addi	a1,a1,2044 # 80002d84 <pass+0x98>
80002590:	fffff697          	auipc	a3,0xfffff
80002594:	a7068693          	addi	a3,a3,-1424 # 80001000 <tohost>
80002598:	fffff617          	auipc	a2,0xfffff
8000259c:	aa860613          	addi	a2,a2,-1368 # 80001040 <fromhost>
800025a0:	0006a703          	lw	a4,0(a3)
800025a4:	0046a783          	lw	a5,4(a3)
800025a8:	00050f13          	mv	t5,a0
800025ac:	00158593          	addi	a1,a1,1
800025b0:	00f76733          	or	a4,a4,a5
800025b4:	01010fb7          	lui	t6,0x1010
800025b8:	02070263          	beqz	a4,800025dc <handle_fault+0x288>
800025bc:	00000793          	li	a5,0
800025c0:	00f62023          	sw	a5,0(a2)
800025c4:	00000813          	li	a6,0
800025c8:	01062223          	sw	a6,4(a2)
800025cc:	0006a703          	lw	a4,0(a3)
800025d0:	0046a783          	lw	a5,4(a3)
800025d4:	00f76733          	or	a4,a4,a5
800025d8:	fe0712e3          	bnez	a4,800025bc <handle_fault+0x268>
800025dc:	0005c503          	lbu	a0,0(a1)
800025e0:	01e6a023          	sw	t5,0(a3)
800025e4:	01f6a223          	sw	t6,4(a3)
800025e8:	fa051ce3          	bnez	a0,800025a0 <handle_fault+0x24c>
800025ec:	f1dff06f          	j	80002508 <handle_fault+0x1b4>
800025f0:	04100513          	li	a0,65
800025f4:	00000597          	auipc	a1,0x0
800025f8:	7a858593          	addi	a1,a1,1960 # 80002d9c <pass+0xb0>
800025fc:	fffff697          	auipc	a3,0xfffff
80002600:	a0468693          	addi	a3,a3,-1532 # 80001000 <tohost>
80002604:	fffff617          	auipc	a2,0xfffff
80002608:	a3c60613          	addi	a2,a2,-1476 # 80001040 <fromhost>
8000260c:	0006a703          	lw	a4,0(a3)
80002610:	0046a783          	lw	a5,4(a3)
80002614:	00050813          	mv	a6,a0
80002618:	00158593          	addi	a1,a1,1
8000261c:	00f76733          	or	a4,a4,a5
80002620:	010108b7          	lui	a7,0x1010
80002624:	02070263          	beqz	a4,80002648 <handle_fault+0x2f4>
80002628:	00000713          	li	a4,0
8000262c:	00e62023          	sw	a4,0(a2)
80002630:	00000793          	li	a5,0
80002634:	00f62223          	sw	a5,4(a2)
80002638:	0006a703          	lw	a4,0(a3)
8000263c:	0046a783          	lw	a5,4(a3)
80002640:	00f76733          	or	a4,a4,a5
80002644:	fe0712e3          	bnez	a4,80002628 <handle_fault+0x2d4>
80002648:	0005c503          	lbu	a0,0(a1)
8000264c:	0106a023          	sw	a6,0(a3)
80002650:	0116a223          	sw	a7,4(a3)
80002654:	fa051ce3          	bnez	a0,8000260c <handle_fault+0x2b8>
80002658:	eb1ff06f          	j	80002508 <handle_fault+0x1b4>

8000265c <handle_trap>:
8000265c:	08c52583          	lw	a1,140(a0)
80002660:	fb010113          	addi	sp,sp,-80
80002664:	04812423          	sw	s0,72(sp)
80002668:	04112623          	sw	ra,76(sp)
8000266c:	04912223          	sw	s1,68(sp)
80002670:	05212023          	sw	s2,64(sp)
80002674:	03312e23          	sw	s3,60(sp)
80002678:	03412c23          	sw	s4,56(sp)
8000267c:	03512a23          	sw	s5,52(sp)
80002680:	03612823          	sw	s6,48(sp)
80002684:	03712623          	sw	s7,44(sp)
80002688:	03812423          	sw	s8,40(sp)
8000268c:	03912223          	sw	s9,36(sp)
80002690:	03a12023          	sw	s10,32(sp)
80002694:	01b12e23          	sw	s11,28(sp)
80002698:	00800793          	li	a5,8
8000269c:	00050413          	mv	s0,a0
800026a0:	16f58663          	beq	a1,a5,8000280c <handle_trap+0x1b0>
800026a4:	00200793          	li	a5,2
800026a8:	06f58063          	beq	a1,a5,80002708 <handle_trap+0xac>
800026ac:	ff458793          	addi	a5,a1,-12
800026b0:	00100713          	li	a4,1
800026b4:	00f77663          	bgeu	a4,a5,800026c0 <handle_trap+0x64>
800026b8:	00f00793          	li	a5,15
800026bc:	22f59263          	bne	a1,a5,800028e0 <handle_trap+0x284>
800026c0:	08842503          	lw	a0,136(s0)
800026c4:	c91ff0ef          	jal	ra,80002354 <handle_fault>
800026c8:	00040513          	mv	a0,s0
800026cc:	04812403          	lw	s0,72(sp)
800026d0:	04c12083          	lw	ra,76(sp)
800026d4:	04412483          	lw	s1,68(sp)
800026d8:	04012903          	lw	s2,64(sp)
800026dc:	03c12983          	lw	s3,60(sp)
800026e0:	03812a03          	lw	s4,56(sp)
800026e4:	03412a83          	lw	s5,52(sp)
800026e8:	03012b03          	lw	s6,48(sp)
800026ec:	02c12b83          	lw	s7,44(sp)
800026f0:	02812c03          	lw	s8,40(sp)
800026f4:	02412c83          	lw	s9,36(sp)
800026f8:	02012d03          	lw	s10,32(sp)
800026fc:	01c12d83          	lw	s11,28(sp)
80002700:	05010113          	addi	sp,sp,80
80002704:	9b9fd06f          	j	800000bc <pop_tf>
80002708:	08452703          	lw	a4,132(a0)
8000270c:	00377793          	andi	a5,a4,3
80002710:	08079863          	bnez	a5,800027a0 <handle_trap+0x144>
80002714:	008007ef          	jal	a5,8000271c <handle_trap+0xc0>
80002718:	00301073          	fscsr	zero
8000271c:	00072703          	lw	a4,0(a4)
80002720:	0007a783          	lw	a5,0(a5)
80002724:	06f70a63          	beq	a4,a5,80002798 <handle_trap+0x13c>
80002728:	04100513          	li	a0,65
8000272c:	00000597          	auipc	a1,0x0
80002730:	73858593          	addi	a1,a1,1848 # 80002e64 <pass+0x178>
80002734:	fffff697          	auipc	a3,0xfffff
80002738:	8cc68693          	addi	a3,a3,-1844 # 80001000 <tohost>
8000273c:	fffff617          	auipc	a2,0xfffff
80002740:	90460613          	addi	a2,a2,-1788 # 80001040 <fromhost>
80002744:	0006a703          	lw	a4,0(a3)
80002748:	0046a783          	lw	a5,4(a3)
8000274c:	00050813          	mv	a6,a0
80002750:	00158593          	addi	a1,a1,1
80002754:	00f76733          	or	a4,a4,a5
80002758:	010108b7          	lui	a7,0x1010
8000275c:	02070263          	beqz	a4,80002780 <handle_trap+0x124>
80002760:	00000713          	li	a4,0
80002764:	00e62023          	sw	a4,0(a2)
80002768:	00000793          	li	a5,0
8000276c:	00f62223          	sw	a5,4(a2)
80002770:	0006a703          	lw	a4,0(a3)
80002774:	0046a783          	lw	a5,4(a3)
80002778:	00f76733          	or	a4,a4,a5
8000277c:	fe0712e3          	bnez	a4,80002760 <handle_trap+0x104>
80002780:	0005c503          	lbu	a0,0(a1)
80002784:	0106a023          	sw	a6,0(a3)
80002788:	0116a223          	sw	a7,4(a3)
8000278c:	fa051ce3          	bnez	a0,80002744 <handle_trap+0xe8>
80002790:	00300513          	li	a0,3
80002794:	a9dff0ef          	jal	ra,80002230 <terminate>
80002798:	00100513          	li	a0,1
8000279c:	a95ff0ef          	jal	ra,80002230 <terminate>
800027a0:	00000597          	auipc	a1,0x0
800027a4:	6a058593          	addi	a1,a1,1696 # 80002e40 <pass+0x154>
800027a8:	04100613          	li	a2,65
800027ac:	fffff697          	auipc	a3,0xfffff
800027b0:	85468693          	addi	a3,a3,-1964 # 80001000 <tohost>
800027b4:	fffff517          	auipc	a0,0xfffff
800027b8:	88c50513          	addi	a0,a0,-1908 # 80001040 <fromhost>
800027bc:	0006a703          	lw	a4,0(a3)
800027c0:	0046a783          	lw	a5,4(a3)
800027c4:	00060e13          	mv	t3,a2
800027c8:	00158593          	addi	a1,a1,1
800027cc:	00f76733          	or	a4,a4,a5
800027d0:	01010eb7          	lui	t4,0x1010
800027d4:	02070263          	beqz	a4,800027f8 <handle_trap+0x19c>
800027d8:	00000793          	li	a5,0
800027dc:	00f52023          	sw	a5,0(a0)
800027e0:	00000813          	li	a6,0
800027e4:	01052223          	sw	a6,4(a0)
800027e8:	0006a703          	lw	a4,0(a3)
800027ec:	0046a783          	lw	a5,4(a3)
800027f0:	00f76733          	or	a4,a4,a5
800027f4:	fe0712e3          	bnez	a4,800027d8 <handle_trap+0x17c>
800027f8:	0005c603          	lbu	a2,0(a1)
800027fc:	01c6a023          	sw	t3,0(a3)
80002800:	01d6a223          	sw	t4,4(a3)
80002804:	fa061ce3          	bnez	a2,800027bc <handle_trap+0x160>
80002808:	f89ff06f          	j	80002790 <handle_trap+0x134>
8000280c:	02852b03          	lw	s6,40(a0)
80002810:	00001c37          	lui	s8,0x1
80002814:	00004497          	auipc	s1,0x4
80002818:	9e448493          	addi	s1,s1,-1564 # 800061f8 <user_mapping>
8000281c:	00001d17          	auipc	s10,0x1
80002820:	7e4d0d13          	addi	s10,s10,2020 # 80004000 <pt>
80002824:	00040cb7          	lui	s9,0x40
80002828:	00004b97          	auipc	s7,0x4
8000282c:	bc8b8b93          	addi	s7,s7,-1080 # 800063f0 <freelist_tail>
80002830:	01c0006f          	j	8000284c <handle_trap+0x1f0>
80002834:	0087a223          	sw	s0,4(a5)
80002838:	008ba023          	sw	s0,0(s7)
8000283c:	000017b7          	lui	a5,0x1
80002840:	00fc0c33          	add	s8,s8,a5
80002844:	0003f7b7          	lui	a5,0x3f
80002848:	1cfc0263          	beq	s8,a5,80002a0c <handle_trap+0x3b0>
8000284c:	00cc5793          	srli	a5,s8,0xc
80002850:	00379413          	slli	s0,a5,0x3
80002854:	00848633          	add	a2,s1,s0
80002858:	00062603          	lw	a2,0(a2)
8000285c:	fe0600e3          	beqz	a2,8000283c <handle_trap+0x1e0>
80002860:	40078793          	addi	a5,a5,1024 # 3f400 <_start-0x7ffc0c00>
80002864:	00279793          	slli	a5,a5,0x2
80002868:	00fd07b3          	add	a5,s10,a5
8000286c:	0007a783          	lw	a5,0(a5)
80002870:	0407f613          	andi	a2,a5,64
80002874:	12060c63          	beqz	a2,800029ac <handle_trap+0x350>
80002878:	00f12623          	sw	a5,12(sp)
8000287c:	100cadf3          	csrrs	s11,sstatus,s9
80002880:	ffc007b7          	lui	a5,0xffc00
80002884:	00fc05b3          	add	a1,s8,a5
80002888:	00001637          	lui	a2,0x1
8000288c:	000c0513          	mv	a0,s8
80002890:	00b12423          	sw	a1,8(sp)
80002894:	875ff0ef          	jal	ra,80002108 <memcmp>
80002898:	02050063          	beqz	a0,800028b8 <handle_trap+0x25c>
8000289c:	00c12783          	lw	a5,12(sp)
800028a0:	00812583          	lw	a1,8(sp)
800028a4:	0807f793          	andi	a5,a5,128
800028a8:	0a078263          	beqz	a5,8000294c <handle_trap+0x2f0>
800028ac:	00001637          	lui	a2,0x1
800028b0:	000c0513          	mv	a0,s8
800028b4:	f4cff0ef          	jal	ra,80002000 <memcpy>
800028b8:	00848433          	add	s0,s1,s0
800028bc:	100d9073          	csrw	sstatus,s11
800028c0:	000ba783          	lw	a5,0(s7)
800028c4:	00042023          	sw	zero,0(s0)
800028c8:	f60796e3          	bnez	a5,80002834 <handle_trap+0x1d8>
800028cc:	00004797          	auipc	a5,0x4
800028d0:	b2878793          	addi	a5,a5,-1240 # 800063f4 <freelist_head>
800028d4:	008ba023          	sw	s0,0(s7)
800028d8:	0087a023          	sw	s0,0(a5)
800028dc:	f61ff06f          	j	8000283c <handle_trap+0x1e0>
800028e0:	04100593          	li	a1,65
800028e4:	00000617          	auipc	a2,0x0
800028e8:	5ac60613          	addi	a2,a2,1452 # 80002e90 <pass+0x1a4>
800028ec:	ffffe697          	auipc	a3,0xffffe
800028f0:	71468693          	addi	a3,a3,1812 # 80001000 <tohost>
800028f4:	ffffe517          	auipc	a0,0xffffe
800028f8:	74c50513          	addi	a0,a0,1868 # 80001040 <fromhost>
800028fc:	0006a703          	lw	a4,0(a3)
80002900:	0046a783          	lw	a5,4(a3)
80002904:	00058313          	mv	t1,a1
80002908:	00160613          	addi	a2,a2,1
8000290c:	00f76733          	or	a4,a4,a5
80002910:	010103b7          	lui	t2,0x1010
80002914:	02070263          	beqz	a4,80002938 <handle_trap+0x2dc>
80002918:	00000793          	li	a5,0
8000291c:	00f52023          	sw	a5,0(a0)
80002920:	00000813          	li	a6,0
80002924:	01052223          	sw	a6,4(a0)
80002928:	0006a703          	lw	a4,0(a3)
8000292c:	0046a783          	lw	a5,4(a3)
80002930:	00f76733          	or	a4,a4,a5
80002934:	fe0712e3          	bnez	a4,80002918 <handle_trap+0x2bc>
80002938:	00064583          	lbu	a1,0(a2)
8000293c:	0066a023          	sw	t1,0(a3)
80002940:	0076a223          	sw	t2,4(a3)
80002944:	fa059ce3          	bnez	a1,800028fc <handle_trap+0x2a0>
80002948:	e49ff06f          	j	80002790 <handle_trap+0x134>
8000294c:	04100793          	li	a5,65
80002950:	00000617          	auipc	a2,0x0
80002954:	4bc60613          	addi	a2,a2,1212 # 80002e0c <pass+0x120>
80002958:	ffffe697          	auipc	a3,0xffffe
8000295c:	6a868693          	addi	a3,a3,1704 # 80001000 <tohost>
80002960:	ffffe597          	auipc	a1,0xffffe
80002964:	6e058593          	addi	a1,a1,1760 # 80001040 <fromhost>
80002968:	00078913          	mv	s2,a5
8000296c:	00160613          	addi	a2,a2,1
80002970:	010109b7          	lui	s3,0x1010
80002974:	0140006f          	j	80002988 <handle_trap+0x32c>
80002978:	00000793          	li	a5,0
8000297c:	00000813          	li	a6,0
80002980:	00f5a023          	sw	a5,0(a1)
80002984:	0105a223          	sw	a6,4(a1)
80002988:	0006a703          	lw	a4,0(a3)
8000298c:	0046a783          	lw	a5,4(a3)
80002990:	00f76733          	or	a4,a4,a5
80002994:	fe0712e3          	bnez	a4,80002978 <handle_trap+0x31c>
80002998:	00064783          	lbu	a5,0(a2)
8000299c:	0126a023          	sw	s2,0(a3)
800029a0:	0136a223          	sw	s3,4(a3)
800029a4:	fc0792e3          	bnez	a5,80002968 <handle_trap+0x30c>
800029a8:	de9ff06f          	j	80002790 <handle_trap+0x134>
800029ac:	04100793          	li	a5,65
800029b0:	00000617          	auipc	a2,0x0
800029b4:	42860613          	addi	a2,a2,1064 # 80002dd8 <pass+0xec>
800029b8:	ffffe697          	auipc	a3,0xffffe
800029bc:	64868693          	addi	a3,a3,1608 # 80001000 <tohost>
800029c0:	ffffe597          	auipc	a1,0xffffe
800029c4:	68058593          	addi	a1,a1,1664 # 80001040 <fromhost>
800029c8:	00078a13          	mv	s4,a5
800029cc:	00160613          	addi	a2,a2,1
800029d0:	01010ab7          	lui	s5,0x1010
800029d4:	0140006f          	j	800029e8 <handle_trap+0x38c>
800029d8:	00000793          	li	a5,0
800029dc:	00000813          	li	a6,0
800029e0:	00f5a023          	sw	a5,0(a1)
800029e4:	0105a223          	sw	a6,4(a1)
800029e8:	0006a703          	lw	a4,0(a3)
800029ec:	0046a783          	lw	a5,4(a3)
800029f0:	00f76733          	or	a4,a4,a5
800029f4:	fe0712e3          	bnez	a4,800029d8 <handle_trap+0x37c>
800029f8:	00064783          	lbu	a5,0(a2)
800029fc:	0146a023          	sw	s4,0(a3)
80002a00:	0156a223          	sw	s5,4(a3)
80002a04:	fc0792e3          	bnez	a5,800029c8 <handle_trap+0x36c>
80002a08:	d89ff06f          	j	80002790 <handle_trap+0x134>
80002a0c:	000b0513          	mv	a0,s6
80002a10:	821ff0ef          	jal	ra,80002230 <terminate>

80002a14 <vm_boot>:
80002a14:	f14027f3          	csrr	a5,mhartid
80002a18:	16079263          	bnez	a5,80002b7c <vm_boot+0x168>
80002a1c:	00002617          	auipc	a2,0x2
80002a20:	5e460613          	addi	a2,a2,1508 # 80005000 <pt+0x1000>
80002a24:	00c65793          	srli	a5,a2,0xc
80002a28:	f6010113          	addi	sp,sp,-160
80002a2c:	00a79793          	slli	a5,a5,0xa
80002a30:	08112e23          	sw	ra,156(sp)
80002a34:	08812c23          	sw	s0,152(sp)
80002a38:	00001597          	auipc	a1,0x1
80002a3c:	5c858593          	addi	a1,a1,1480 # 80004000 <pt>
80002a40:	0017e793          	ori	a5,a5,1
80002a44:	00f5a023          	sw	a5,0(a1)
80002a48:	200007b7          	lui	a5,0x20000
80002a4c:	00c5d693          	srli	a3,a1,0xc
80002a50:	80000737          	lui	a4,0x80000
80002a54:	0cf78793          	addi	a5,a5,207 # 200000cf <_start-0x5fffff31>
80002a58:	fef62e23          	sw	a5,-4(a2)
80002a5c:	00e6e7b3          	or	a5,a3,a4
80002a60:	18079073          	csrw	satp,a5
80002a64:	180026f3          	csrr	a3,satp
80002a68:	16d79a63          	bne	a5,a3,80002bdc <vm_boot+0x1c8>
80002a6c:	00050413          	mv	s0,a0
80002a70:	fff74713          	not	a4,a4
80002a74:	01f00793          	li	a5,31
80002a78:	00000297          	auipc	t0,0x0
80002a7c:	01428293          	addi	t0,t0,20 # 80002a8c <vm_boot+0x78>
80002a80:	305292f3          	csrrw	t0,mtvec,t0
80002a84:	3b071073          	csrw	pmpaddr0,a4
80002a88:	3a079073          	csrw	pmpcfg0,a5
80002a8c:	7fbfd797          	auipc	a5,0x7fbfd
80002a90:	6b878793          	addi	a5,a5,1720 # ffc00144 <_end+0x7fbf9d4c>
80002a94:	10579073          	csrw	stvec,a5
80002a98:	340027f3          	csrr	a5,mscratch
80002a9c:	7fc008b7          	lui	a7,0x7fc00
80002aa0:	011787b3          	add	a5,a5,a7
80002aa4:	14079073          	csrw	sscratch,a5
80002aa8:	0000b7b7          	lui	a5,0xb
80002aac:	10078793          	addi	a5,a5,256 # b100 <_start-0x7fff4f00>
80002ab0:	30279073          	csrw	medeleg,a5
80002ab4:	0001e7b7          	lui	a5,0x1e
80002ab8:	30079073          	csrw	mstatus,a5
80002abc:	30405073          	csrwi	mie,0
80002ac0:	7fc03797          	auipc	a5,0x7fc03
80002ac4:	54078793          	addi	a5,a5,1344 # ffc06000 <_end+0x7fbffc08>
80002ac8:	00004717          	auipc	a4,0x4
80002acc:	92f72623          	sw	a5,-1748(a4) # 800063f4 <freelist_head>
80002ad0:	7fc03797          	auipc	a5,0x7fc03
80002ad4:	72078793          	addi	a5,a5,1824 # ffc061f0 <_end+0x7fbffdf8>
80002ad8:	00004717          	auipc	a4,0x4
80002adc:	90f72c23          	sw	a5,-1768(a4) # 800063f0 <freelist_tail>
80002ae0:	00080337          	lui	t1,0x80
80002ae4:	00003717          	auipc	a4,0x3
80002ae8:	51c70713          	addi	a4,a4,1308 # 80006000 <freelist_nodes>
80002aec:	00003e17          	auipc	t3,0x3
80002af0:	70ce0e13          	addi	t3,t3,1804 # 800061f8 <user_mapping>
80002af4:	03500793          	li	a5,53
80002af8:	00000593          	li	a1,0
80002afc:	03f30313          	addi	t1,t1,63 # 8003f <_start-0x7ff7ffc1>
80002b00:	00888893          	addi	a7,a7,8 # 7fc00008 <_start-0x3ffff8>
80002b04:	01f59613          	slli	a2,a1,0x1f
80002b08:	0017d693          	srli	a3,a5,0x1
80002b0c:	00d666b3          	or	a3,a2,a3
80002b10:	00678633          	add	a2,a5,t1
80002b14:	00f6c7b3          	xor	a5,a3,a5
80002b18:	01170833          	add	a6,a4,a7
80002b1c:	00c61613          	slli	a2,a2,0xc
80002b20:	00579793          	slli	a5,a5,0x5
80002b24:	00c72023          	sw	a2,0(a4)
80002b28:	01072223          	sw	a6,4(a4)
80002b2c:	0207f793          	andi	a5,a5,32
80002b30:	00870713          	addi	a4,a4,8
80002b34:	00f6e7b3          	or	a5,a3,a5
80002b38:	0015d593          	srli	a1,a1,0x1
80002b3c:	fcee14e3          	bne	t3,a4,80002b04 <vm_boot+0xf0>
80002b40:	09000613          	li	a2,144
80002b44:	00000593          	li	a1,0
80002b48:	00010513          	mv	a0,sp
80002b4c:	00003797          	auipc	a5,0x3
80002b50:	6a07a423          	sw	zero,1704(a5) # 800061f4 <freelist_nodes+0x1f4>
80002b54:	d08ff0ef          	jal	ra,8000205c <memset>
80002b58:	800007b7          	lui	a5,0x80000
80002b5c:	00f40433          	add	s0,s0,a5
80002b60:	00010513          	mv	a0,sp
80002b64:	08812223          	sw	s0,132(sp)
80002b68:	d54fd0ef          	jal	ra,800000bc <pop_tf>
80002b6c:	09c12083          	lw	ra,156(sp)
80002b70:	09812403          	lw	s0,152(sp)
80002b74:	0a010113          	addi	sp,sp,160
80002b78:	00008067          	ret
80002b7c:	08d387b7          	lui	a5,0x8d38
80002b80:	000805b7          	lui	a1,0x80
80002b84:	e4678793          	addi	a5,a5,-442 # 8d37e46 <_start-0x772c81ba>
80002b88:	00000713          	li	a4,0
80002b8c:	ffc58593          	addi	a1,a1,-4 # 7fffc <_start-0x7ff80004>
80002b90:	80000837          	lui	a6,0x80000
80002b94:	40000537          	lui	a0,0x40000
80002b98:	02c0006f          	j	80002bc4 <vm_boot+0x1b0>
80002b9c:	0006a02f          	amoadd.w	zero,zero,(a3)
80002ba0:	01f71613          	slli	a2,a4,0x1f
80002ba4:	0017d693          	srli	a3,a5,0x1
80002ba8:	00d666b3          	or	a3,a2,a3
80002bac:	00d7c7b3          	xor	a5,a5,a3
80002bb0:	01e79793          	slli	a5,a5,0x1e
80002bb4:	00f57633          	and	a2,a0,a5
80002bb8:	00175713          	srli	a4,a4,0x1
80002bbc:	00068793          	mv	a5,a3
80002bc0:	00e66733          	or	a4,a2,a4
80002bc4:	00b7f6b3          	and	a3,a5,a1
80002bc8:	0017f613          	andi	a2,a5,1
80002bcc:	010686b3          	add	a3,a3,a6
80002bd0:	fc0616e3          	bnez	a2,80002b9c <vm_boot+0x188>
80002bd4:	0006a003          	lw	zero,0(a3)
80002bd8:	fc9ff06f          	j	80002ba0 <vm_boot+0x18c>
80002bdc:	04100593          	li	a1,65
80002be0:	00000617          	auipc	a2,0x0
80002be4:	2dc60613          	addi	a2,a2,732 # 80002ebc <pass+0x1d0>
80002be8:	ffffe697          	auipc	a3,0xffffe
80002bec:	41868693          	addi	a3,a3,1048 # 80001000 <tohost>
80002bf0:	ffffe517          	auipc	a0,0xffffe
80002bf4:	45050513          	addi	a0,a0,1104 # 80001040 <fromhost>
80002bf8:	0006a703          	lw	a4,0(a3)
80002bfc:	0046a783          	lw	a5,4(a3)
80002c00:	00058813          	mv	a6,a1
80002c04:	00160613          	addi	a2,a2,1
80002c08:	00f76733          	or	a4,a4,a5
80002c0c:	010108b7          	lui	a7,0x1010
80002c10:	02070263          	beqz	a4,80002c34 <vm_boot+0x220>
80002c14:	00000713          	li	a4,0
80002c18:	00e52023          	sw	a4,0(a0)
80002c1c:	00000793          	li	a5,0
80002c20:	00f52223          	sw	a5,4(a0)
80002c24:	0006a703          	lw	a4,0(a3)
80002c28:	0046a783          	lw	a5,4(a3)
80002c2c:	00f76733          	or	a4,a4,a5
80002c30:	fe0712e3          	bnez	a4,80002c14 <vm_boot+0x200>
80002c34:	00064583          	lbu	a1,0(a2)
80002c38:	0106a023          	sw	a6,0(a3)
80002c3c:	0116a223          	sw	a7,4(a3)
80002c40:	fa059ce3          	bnez	a1,80002bf8 <vm_boot+0x1e4>
80002c44:	00300513          	li	a0,3
80002c48:	de8ff0ef          	jal	ra,80002230 <terminate>

80002c4c <extra_boot>:
80002c4c:	00008067          	ret

80002c50 <userstart>:
80002c50:	00301073          	fscsr	zero
80002c54:	00000517          	auipc	a0,0x0
80002c58:	3ac52007          	flw	ft0,940(a0) # 80003000 <begin_signature>
80002c5c:	00000517          	auipc	a0,0x0
80002c60:	3a852087          	flw	ft1,936(a0) # 80003004 <three>
80002c64:	1000f0d3          	fmul.s	ft1,ft1,ft0

80002c68 <test_2>:
80002c68:	a0102553          	feq.s	a0,ft0,ft1
80002c6c:	00100e93          	li	t4,1
80002c70:	00200193          	li	gp,2
80002c74:	07d51463          	bne	a0,t4,80002cdc <fail>

80002c78 <test_3>:
80002c78:	a0100553          	fle.s	a0,ft0,ft1
80002c7c:	00100e93          	li	t4,1
80002c80:	00300193          	li	gp,3
80002c84:	05d51c63          	bne	a0,t4,80002cdc <fail>

80002c88 <test_4>:
80002c88:	a0101553          	flt.s	a0,ft0,ft1
80002c8c:	00000e93          	li	t4,0
80002c90:	00400193          	li	gp,4
80002c94:	05d51463          	bne	a0,t4,80002cdc <fail>
80002c98:	d0007053          	fcvt.s.w	ft0,zero
80002c9c:	00100513          	li	a0,1
80002ca0:	d00570d3          	fcvt.s.w	ft1,a0
80002ca4:	1000f0d3          	fmul.s	ft1,ft1,ft0

80002ca8 <test_5>:
80002ca8:	a0102553          	feq.s	a0,ft0,ft1
80002cac:	00100e93          	li	t4,1
80002cb0:	00500193          	li	gp,5
80002cb4:	03d51463          	bne	a0,t4,80002cdc <fail>

80002cb8 <test_6>:
80002cb8:	a0100553          	fle.s	a0,ft0,ft1
80002cbc:	00100e93          	li	t4,1
80002cc0:	00600193          	li	gp,6
80002cc4:	01d51c63          	bne	a0,t4,80002cdc <fail>

80002cc8 <test_7>:
80002cc8:	a0101553          	flt.s	a0,ft0,ft1
80002ccc:	00000e93          	li	t4,0
80002cd0:	00700193          	li	gp,7
80002cd4:	01d51463          	bne	a0,t4,80002cdc <fail>
80002cd8:	00301a63          	bne	zero,gp,80002cec <pass>

80002cdc <fail>:
80002cdc:	00119513          	slli	a0,gp,0x1
80002ce0:	00050063          	beqz	a0,80002ce0 <fail+0x4>
80002ce4:	00156513          	ori	a0,a0,1
80002ce8:	00000073          	ecall

80002cec <pass>:
80002cec:	00100513          	li	a0,1
80002cf0:	00000073          	ecall
80002cf4:	c0001073          	unimp

Disassembly of section .data:

80003000 <begin_signature>:
80003000:	0000                	unimp
80003002:	ff80                	fsw	fs0,56(a5)

80003004 <three>:
80003004:	0000                	unimp
80003006:	4040                	lw	s0,4(s0)
