
rv32si-p-dirty:     file format elf32-littleriscv


Disassembly of section .text.init:

80000000 <_start>:
80000000:	04c0006f          	j	8000004c <reset_vector>

80000004 <trap_vector>:
80000004:	34202f73          	csrr	t5,mcause
80000008:	00800f93          	li	t6,8
8000000c:	03ff0a63          	beq	t5,t6,80000040 <write_tohost>
80000010:	00900f93          	li	t6,9
80000014:	03ff0663          	beq	t5,t6,80000040 <write_tohost>
80000018:	00b00f93          	li	t6,11
8000001c:	03ff0263          	beq	t5,t6,80000040 <write_tohost>
80000020:	00000f17          	auipc	t5,0x0
80000024:	1f0f0f13          	addi	t5,t5,496 # 80000210 <mtvec_handler>
80000028:	000f0463          	beqz	t5,80000030 <trap_vector+0x2c>
8000002c:	000f0067          	jr	t5
80000030:	34202f73          	csrr	t5,mcause
80000034:	000f5463          	bgez	t5,8000003c <handle_exception>
80000038:	0040006f          	j	8000003c <handle_exception>

8000003c <handle_exception>:
8000003c:	5391e193          	ori	gp,gp,1337

80000040 <write_tohost>:
80000040:	00001f17          	auipc	t5,0x1
80000044:	fc3f2023          	sw	gp,-64(t5) # 80001000 <tohost>
80000048:	ff9ff06f          	j	80000040 <write_tohost>

8000004c <reset_vector>:
8000004c:	f1402573          	csrr	a0,mhartid
80000050:	00051063          	bnez	a0,80000050 <reset_vector+0x4>
80000054:	00000297          	auipc	t0,0x0
80000058:	01028293          	addi	t0,t0,16 # 80000064 <reset_vector+0x18>
8000005c:	30529073          	csrw	mtvec,t0
80000060:	18005073          	csrwi	satp,0
80000064:	00000297          	auipc	t0,0x0
80000068:	02028293          	addi	t0,t0,32 # 80000084 <reset_vector+0x38>
8000006c:	30529073          	csrw	mtvec,t0
80000070:	800002b7          	lui	t0,0x80000
80000074:	fff28293          	addi	t0,t0,-1 # 7fffffff <_end+0xffffdfef>
80000078:	3b029073          	csrw	pmpaddr0,t0
8000007c:	01f00293          	li	t0,31
80000080:	3a029073          	csrw	pmpcfg0,t0
80000084:	00000297          	auipc	t0,0x0
80000088:	01828293          	addi	t0,t0,24 # 8000009c <reset_vector+0x50>
8000008c:	30529073          	csrw	mtvec,t0
80000090:	30205073          	csrwi	medeleg,0
80000094:	30305073          	csrwi	mideleg,0
80000098:	30405073          	csrwi	mie,0
8000009c:	00000193          	li	gp,0
800000a0:	00000297          	auipc	t0,0x0
800000a4:	f6428293          	addi	t0,t0,-156 # 80000004 <trap_vector>
800000a8:	30529073          	csrw	mtvec,t0
800000ac:	00100513          	li	a0,1
800000b0:	01f51513          	slli	a0,a0,0x1f
800000b4:	00054c63          	bltz	a0,800000cc <reset_vector+0x80>
800000b8:	0ff0000f          	fence
800000bc:	00100193          	li	gp,1
800000c0:	05d00893          	li	a7,93
800000c4:	00000513          	li	a0,0
800000c8:	00000073          	ecall
800000cc:	80000297          	auipc	t0,0x80000
800000d0:	f3428293          	addi	t0,t0,-204 # 0 <_start-0x80000000>
800000d4:	00028e63          	beqz	t0,800000f0 <reset_vector+0xa4>
800000d8:	10529073          	csrw	stvec,t0
800000dc:	0000b2b7          	lui	t0,0xb
800000e0:	10928293          	addi	t0,t0,265 # b109 <_start-0x7fff4ef7>
800000e4:	30229073          	csrw	medeleg,t0
800000e8:	30202373          	csrr	t1,medeleg
800000ec:	f46298e3          	bne	t0,t1,8000003c <handle_exception>
800000f0:	30005073          	csrwi	mstatus,0
800000f4:	00002537          	lui	a0,0x2
800000f8:	80050513          	addi	a0,a0,-2048 # 1800 <_start-0x7fffe800>
800000fc:	30052073          	csrs	mstatus,a0
80000100:	00000297          	auipc	t0,0x0
80000104:	01428293          	addi	t0,t0,20 # 80000114 <reset_vector+0xc8>
80000108:	34129073          	csrw	mepc,t0
8000010c:	f1402573          	csrr	a0,mhartid
80000110:	30200073          	mret
80000114:	80000537          	lui	a0,0x80000
80000118:	00002597          	auipc	a1,0x2
8000011c:	ee858593          	addi	a1,a1,-280 # 80002000 <begin_signature>
80000120:	00c5d593          	srli	a1,a1,0xc
80000124:	00a5e5b3          	or	a1,a1,a0
80000128:	18059073          	csrw	satp,a1
8000012c:	12000073          	sfence.vma
80000130:	000215b7          	lui	a1,0x21
80000134:	80058593          	addi	a1,a1,-2048 # 20800 <_start-0x7ffdf800>
80000138:	3005a073          	csrs	mstatus,a1
8000013c:	00200193          	li	gp,2
80000140:	00100393          	li	t2,1
80000144:	80002517          	auipc	a0,0x80002
80000148:	ec752223          	sw	t2,-316(a0) # 2008 <_start-0x7fffdff8>
8000014c:	00300193          	li	gp,3
80000150:	000415b7          	lui	a1,0x41
80000154:	80058593          	addi	a1,a1,-2048 # 40800 <_start-0x7ffbf800>
80000158:	3005a073          	csrs	mstatus,a1
8000015c:	80002297          	auipc	t0,0x80002
80000160:	eac2a283          	lw	t0,-340(t0) # 2008 <_start-0x7fffdff8>
80000164:	10029c63          	bnez	t0,8000027c <die>
80000168:	80002517          	auipc	a0,0x80002
8000016c:	ea752023          	sw	t2,-352(a0) # 2008 <_start-0x7fffdff8>
80000170:	80002297          	auipc	t0,0x80002
80000174:	e982a283          	lw	t0,-360(t0) # 2008 <_start-0x7fffdff8>
80000178:	10729263          	bne	t0,t2,8000027c <die>
8000017c:	000202b7          	lui	t0,0x20
80000180:	3002b073          	csrc	mstatus,t0
80000184:	00002297          	auipc	t0,0x2
80000188:	e7c2a283          	lw	t0,-388(t0) # 80002000 <begin_signature>
8000018c:	0c000513          	li	a0,192
80000190:	00a2f2b3          	and	t0,t0,a0
80000194:	0ea29463          	bne	t0,a0,8000027c <die>
80000198:	000202b7          	lui	t0,0x20
8000019c:	3002a073          	csrs	mstatus,t0
800001a0:	00400193          	li	gp,4
800001a4:	80002517          	auipc	a0,0x80002
800001a8:	e5c52503          	lw	a0,-420(a0) # 2000 <_start-0x7fffe000>
800001ac:	40056513          	ori	a0,a0,1024
800001b0:	80002297          	auipc	t0,0x80002
800001b4:	e4a2a823          	sw	a0,-432(t0) # 2000 <_start-0x7fffe000>
800001b8:	12000073          	sfence.vma
800001bc:	80002297          	auipc	t0,0x80002
800001c0:	e4a2a223          	sw	a0,-444(t0) # 2000 <_start-0x7fffe000>
800001c4:	0b80006f          	j	8000027c <die>
800001c8:	0ff0000f          	fence
800001cc:	00100193          	li	gp,1
800001d0:	05d00893          	li	a7,93
800001d4:	00000513          	li	a0,0
800001d8:	00000073          	ecall
800001dc:	02301063          	bne	zero,gp,800001fc <pass>

800001e0 <fail>:
800001e0:	0ff0000f          	fence
800001e4:	00018063          	beqz	gp,800001e4 <fail+0x4>
800001e8:	00119193          	slli	gp,gp,0x1
800001ec:	0011e193          	ori	gp,gp,1
800001f0:	05d00893          	li	a7,93
800001f4:	00018513          	mv	a0,gp
800001f8:	00000073          	ecall

800001fc <pass>:
800001fc:	0ff0000f          	fence
80000200:	00100193          	li	gp,1
80000204:	05d00893          	li	a7,93
80000208:	00000513          	li	a0,0
8000020c:	00000073          	ecall

80000210 <mtvec_handler>:
80000210:	342022f3          	csrr	t0,mcause
80000214:	ff128293          	addi	t0,t0,-15
80000218:	06029263          	bnez	t0,8000027c <die>
8000021c:	00200313          	li	t1,2
80000220:	02619263          	bne	gp,t1,80000244 <skip+0x10>
80000224:	00002297          	auipc	t0,0x2
80000228:	ddc2a283          	lw	t0,-548(t0) # 80002000 <begin_signature>
8000022c:	0802f313          	andi	t1,t0,128
80000230:	04031663          	bnez	t1,8000027c <die>

80000234 <skip>:
80000234:	341022f3          	csrr	t0,mepc
80000238:	00428293          	addi	t0,t0,4
8000023c:	34129073          	csrw	mepc,t0
80000240:	30200073          	mret
80000244:	00300313          	li	t1,3
80000248:	02619463          	bne	gp,t1,80000270 <skip+0x3c>
8000024c:	00002297          	auipc	t0,0x2
80000250:	db42a283          	lw	t0,-588(t0) # 80002000 <begin_signature>
80000254:	0802f313          	andi	t1,t0,128
80000258:	02031263          	bnez	t1,8000027c <die>
8000025c:	0802e293          	ori	t0,t0,128
80000260:	00002317          	auipc	t1,0x2
80000264:	da532023          	sw	t0,-608(t1) # 80002000 <begin_signature>
80000268:	12000073          	sfence.vma
8000026c:	30200073          	mret
80000270:	00400313          	li	t1,4
80000274:	00619463          	bne	gp,t1,8000027c <die>
80000278:	f85ff06f          	j	800001fc <pass>

8000027c <die>:
8000027c:	0ff0000f          	fence
80000280:	00018063          	beqz	gp,80000280 <die+0x4>
80000284:	00119193          	slli	gp,gp,0x1
80000288:	0011e193          	ori	gp,gp,1
8000028c:	05d00893          	li	a7,93
80000290:	00018513          	mv	a0,gp
80000294:	00000073          	ecall
80000298:	c0001073          	unimp
8000029c:	0000                	unimp
8000029e:	0000                	unimp
800002a0:	0000                	unimp
800002a2:	0000                	unimp
800002a4:	0000                	unimp
800002a6:	0000                	unimp
800002a8:	0000                	unimp
800002aa:	0000                	unimp
800002ac:	0000                	unimp
800002ae:	0000                	unimp
800002b0:	0000                	unimp
800002b2:	0000                	unimp
800002b4:	0000                	unimp
800002b6:	0000                	unimp
800002b8:	0000                	unimp
800002ba:	0000                	unimp
800002bc:	0000                	unimp
800002be:	0000                	unimp
800002c0:	0000                	unimp
800002c2:	0000                	unimp

Disassembly of section .data:

80002000 <begin_signature>:
80002000:	005f 2000 0000      	0x2000005f
80002006:	0000                	unimp

80002008 <dummy>:
80002008:	0000                	unimp
8000200a:	0000                	unimp
8000200c:	0000                	unimp
8000200e:	0000                	unimp
