
rv64ui-p-sllw:     file format elf64-littleriscv


Disassembly of section .text.init:

0000000080000000 <_start>:
    80000000:	04c0006f          	j	8000004c <reset_vector>

0000000080000004 <trap_vector>:
    80000004:	34202f73          	csrr	t5,mcause
    80000008:	00800f93          	li	t6,8
    8000000c:	03ff0a63          	beq	t5,t6,80000040 <write_tohost>
    80000010:	00900f93          	li	t6,9
    80000014:	03ff0663          	beq	t5,t6,80000040 <write_tohost>
    80000018:	00b00f93          	li	t6,11
    8000001c:	03ff0263          	beq	t5,t6,80000040 <write_tohost>
    80000020:	80000f17          	auipc	t5,0x80000
    80000024:	fe0f0f13          	addi	t5,t5,-32 # 0 <_start-0x80000000>
    80000028:	000f0463          	beqz	t5,80000030 <trap_vector+0x2c>
    8000002c:	000f0067          	jr	t5
    80000030:	34202f73          	csrr	t5,mcause
    80000034:	000f5463          	bgez	t5,8000003c <handle_exception>
    80000038:	0040006f          	j	8000003c <handle_exception>

000000008000003c <handle_exception>:
    8000003c:	5391e193          	ori	gp,gp,1337

0000000080000040 <write_tohost>:
    80000040:	00001f17          	auipc	t5,0x1
    80000044:	fc3f2023          	sw	gp,-64(t5) # 80001000 <tohost>
    80000048:	ff9ff06f          	j	80000040 <write_tohost>

000000008000004c <reset_vector>:
    8000004c:	f1402573          	csrr	a0,mhartid
    80000050:	00051063          	bnez	a0,80000050 <reset_vector+0x4>
    80000054:	00000297          	auipc	t0,0x0
    80000058:	01028293          	addi	t0,t0,16 # 80000064 <reset_vector+0x18>
    8000005c:	30529073          	csrw	mtvec,t0
    80000060:	18005073          	csrwi	satp,0
    80000064:	00000297          	auipc	t0,0x0
    80000068:	02428293          	addi	t0,t0,36 # 80000088 <reset_vector+0x3c>
    8000006c:	30529073          	csrw	mtvec,t0
    80000070:	0010029b          	addiw	t0,zero,1
    80000074:	03529293          	slli	t0,t0,0x35
    80000078:	fff28293          	addi	t0,t0,-1
    8000007c:	3b029073          	csrw	pmpaddr0,t0
    80000080:	01f00293          	li	t0,31
    80000084:	3a029073          	csrw	pmpcfg0,t0
    80000088:	00000297          	auipc	t0,0x0
    8000008c:	01828293          	addi	t0,t0,24 # 800000a0 <reset_vector+0x54>
    80000090:	30529073          	csrw	mtvec,t0
    80000094:	30205073          	csrwi	medeleg,0
    80000098:	30305073          	csrwi	mideleg,0
    8000009c:	30405073          	csrwi	mie,0
    800000a0:	00000193          	li	gp,0
    800000a4:	00000297          	auipc	t0,0x0
    800000a8:	f6028293          	addi	t0,t0,-160 # 80000004 <trap_vector>
    800000ac:	30529073          	csrw	mtvec,t0
    800000b0:	00100513          	li	a0,1
    800000b4:	01f51513          	slli	a0,a0,0x1f
    800000b8:	00055c63          	bgez	a0,800000d0 <reset_vector+0x84>
    800000bc:	0ff0000f          	fence
    800000c0:	00100193          	li	gp,1
    800000c4:	05d00893          	li	a7,93
    800000c8:	00000513          	li	a0,0
    800000cc:	00000073          	ecall
    800000d0:	80000297          	auipc	t0,0x80000
    800000d4:	f3028293          	addi	t0,t0,-208 # 0 <_start-0x80000000>
    800000d8:	00028e63          	beqz	t0,800000f4 <reset_vector+0xa8>
    800000dc:	10529073          	csrw	stvec,t0
    800000e0:	0000b2b7          	lui	t0,0xb
    800000e4:	1092829b          	addiw	t0,t0,265
    800000e8:	30229073          	csrw	medeleg,t0
    800000ec:	30202373          	csrr	t1,medeleg
    800000f0:	f46296e3          	bne	t0,t1,8000003c <handle_exception>
    800000f4:	30005073          	csrwi	mstatus,0
    800000f8:	00000297          	auipc	t0,0x0
    800000fc:	01428293          	addi	t0,t0,20 # 8000010c <test_2>
    80000100:	34129073          	csrw	mepc,t0
    80000104:	f1402573          	csrr	a0,mhartid
    80000108:	30200073          	mret

000000008000010c <test_2>:
    8000010c:	00100093          	li	ra,1
    80000110:	00000113          	li	sp,0
    80000114:	0020973b          	sllw	a4,ra,sp
    80000118:	00100e93          	li	t4,1
    8000011c:	00200193          	li	gp,2
    80000120:	5fd71c63          	bne	a4,t4,80000718 <fail>

0000000080000124 <test_3>:
    80000124:	00100093          	li	ra,1
    80000128:	00100113          	li	sp,1
    8000012c:	0020973b          	sllw	a4,ra,sp
    80000130:	00200e93          	li	t4,2
    80000134:	00300193          	li	gp,3
    80000138:	5fd71063          	bne	a4,t4,80000718 <fail>

000000008000013c <test_4>:
    8000013c:	00100093          	li	ra,1
    80000140:	00700113          	li	sp,7
    80000144:	0020973b          	sllw	a4,ra,sp
    80000148:	08000e93          	li	t4,128
    8000014c:	00400193          	li	gp,4
    80000150:	5dd71463          	bne	a4,t4,80000718 <fail>

0000000080000154 <test_5>:
    80000154:	00100093          	li	ra,1
    80000158:	00e00113          	li	sp,14
    8000015c:	0020973b          	sllw	a4,ra,sp
    80000160:	00004eb7          	lui	t4,0x4
    80000164:	00500193          	li	gp,5
    80000168:	5bd71863          	bne	a4,t4,80000718 <fail>

000000008000016c <test_6>:
    8000016c:	00100093          	li	ra,1
    80000170:	01f00113          	li	sp,31
    80000174:	0020973b          	sllw	a4,ra,sp
    80000178:	80000eb7          	lui	t4,0x80000
    8000017c:	00600193          	li	gp,6
    80000180:	59d71c63          	bne	a4,t4,80000718 <fail>

0000000080000184 <test_7>:
    80000184:	fff00093          	li	ra,-1
    80000188:	00000113          	li	sp,0
    8000018c:	0020973b          	sllw	a4,ra,sp
    80000190:	fff00e93          	li	t4,-1
    80000194:	00700193          	li	gp,7
    80000198:	59d71063          	bne	a4,t4,80000718 <fail>

000000008000019c <test_8>:
    8000019c:	fff00093          	li	ra,-1
    800001a0:	00100113          	li	sp,1
    800001a4:	0020973b          	sllw	a4,ra,sp
    800001a8:	ffe00e93          	li	t4,-2
    800001ac:	00800193          	li	gp,8
    800001b0:	57d71463          	bne	a4,t4,80000718 <fail>

00000000800001b4 <test_9>:
    800001b4:	fff00093          	li	ra,-1
    800001b8:	00700113          	li	sp,7
    800001bc:	0020973b          	sllw	a4,ra,sp
    800001c0:	f8000e93          	li	t4,-128
    800001c4:	00900193          	li	gp,9
    800001c8:	55d71863          	bne	a4,t4,80000718 <fail>

00000000800001cc <test_10>:
    800001cc:	fff00093          	li	ra,-1
    800001d0:	00e00113          	li	sp,14
    800001d4:	0020973b          	sllw	a4,ra,sp
    800001d8:	ffffceb7          	lui	t4,0xffffc
    800001dc:	00a00193          	li	gp,10
    800001e0:	53d71c63          	bne	a4,t4,80000718 <fail>

00000000800001e4 <test_11>:
    800001e4:	fff00093          	li	ra,-1
    800001e8:	01f00113          	li	sp,31
    800001ec:	0020973b          	sllw	a4,ra,sp
    800001f0:	80000eb7          	lui	t4,0x80000
    800001f4:	00b00193          	li	gp,11
    800001f8:	53d71063          	bne	a4,t4,80000718 <fail>

00000000800001fc <test_12>:
    800001fc:	212120b7          	lui	ra,0x21212
    80000200:	1210809b          	addiw	ra,ra,289
    80000204:	00000113          	li	sp,0
    80000208:	0020973b          	sllw	a4,ra,sp
    8000020c:	21212eb7          	lui	t4,0x21212
    80000210:	121e8e9b          	addiw	t4,t4,289
    80000214:	00c00193          	li	gp,12
    80000218:	51d71063          	bne	a4,t4,80000718 <fail>

000000008000021c <test_13>:
    8000021c:	212120b7          	lui	ra,0x21212
    80000220:	1210809b          	addiw	ra,ra,289
    80000224:	00100113          	li	sp,1
    80000228:	0020973b          	sllw	a4,ra,sp
    8000022c:	42424eb7          	lui	t4,0x42424
    80000230:	242e8e9b          	addiw	t4,t4,578
    80000234:	00d00193          	li	gp,13
    80000238:	4fd71063          	bne	a4,t4,80000718 <fail>

000000008000023c <test_14>:
    8000023c:	212120b7          	lui	ra,0x21212
    80000240:	1210809b          	addiw	ra,ra,289
    80000244:	00700113          	li	sp,7
    80000248:	0020973b          	sllw	a4,ra,sp
    8000024c:	90909eb7          	lui	t4,0x90909
    80000250:	080e8e9b          	addiw	t4,t4,128
    80000254:	00e00193          	li	gp,14
    80000258:	4dd71063          	bne	a4,t4,80000718 <fail>

000000008000025c <test_15>:
    8000025c:	212120b7          	lui	ra,0x21212
    80000260:	1210809b          	addiw	ra,ra,289
    80000264:	00e00113          	li	sp,14
    80000268:	0020973b          	sllw	a4,ra,sp
    8000026c:	48484eb7          	lui	t4,0x48484
    80000270:	00f00193          	li	gp,15
    80000274:	4bd71263          	bne	a4,t4,80000718 <fail>

0000000080000278 <test_16>:
    80000278:	212120b7          	lui	ra,0x21212
    8000027c:	1210809b          	addiw	ra,ra,289
    80000280:	01f00113          	li	sp,31
    80000284:	0020973b          	sllw	a4,ra,sp
    80000288:	80000eb7          	lui	t4,0x80000
    8000028c:	01000193          	li	gp,16
    80000290:	49d71463          	bne	a4,t4,80000718 <fail>

0000000080000294 <test_17>:
    80000294:	212120b7          	lui	ra,0x21212
    80000298:	1210809b          	addiw	ra,ra,289
    8000029c:	fe000113          	li	sp,-32
    800002a0:	0020973b          	sllw	a4,ra,sp
    800002a4:	21212eb7          	lui	t4,0x21212
    800002a8:	121e8e9b          	addiw	t4,t4,289
    800002ac:	01100193          	li	gp,17
    800002b0:	47d71463          	bne	a4,t4,80000718 <fail>

00000000800002b4 <test_18>:
    800002b4:	212120b7          	lui	ra,0x21212
    800002b8:	1210809b          	addiw	ra,ra,289
    800002bc:	fe100113          	li	sp,-31
    800002c0:	0020973b          	sllw	a4,ra,sp
    800002c4:	42424eb7          	lui	t4,0x42424
    800002c8:	242e8e9b          	addiw	t4,t4,578
    800002cc:	01200193          	li	gp,18
    800002d0:	45d71463          	bne	a4,t4,80000718 <fail>

00000000800002d4 <test_19>:
    800002d4:	212120b7          	lui	ra,0x21212
    800002d8:	1210809b          	addiw	ra,ra,289
    800002dc:	fe700113          	li	sp,-25
    800002e0:	0020973b          	sllw	a4,ra,sp
    800002e4:	90909eb7          	lui	t4,0x90909
    800002e8:	080e8e9b          	addiw	t4,t4,128
    800002ec:	01300193          	li	gp,19
    800002f0:	43d71463          	bne	a4,t4,80000718 <fail>

00000000800002f4 <test_20>:
    800002f4:	212120b7          	lui	ra,0x21212
    800002f8:	1210809b          	addiw	ra,ra,289
    800002fc:	fee00113          	li	sp,-18
    80000300:	0020973b          	sllw	a4,ra,sp
    80000304:	48484eb7          	lui	t4,0x48484
    80000308:	01400193          	li	gp,20
    8000030c:	41d71663          	bne	a4,t4,80000718 <fail>

0000000080000310 <test_21>:
    80000310:	212120b7          	lui	ra,0x21212
    80000314:	1210809b          	addiw	ra,ra,289
    80000318:	fff00113          	li	sp,-1
    8000031c:	0020973b          	sllw	a4,ra,sp
    80000320:	80000eb7          	lui	t4,0x80000
    80000324:	01500193          	li	gp,21
    80000328:	3fd71863          	bne	a4,t4,80000718 <fail>

000000008000032c <test_44>:
    8000032c:	fff120b7          	lui	ra,0xfff12
    80000330:	3450809b          	addiw	ra,ra,837
    80000334:	00c09093          	slli	ra,ra,0xc
    80000338:	67808093          	addi	ra,ra,1656 # fffffffffff12678 <_end+0xffffffff7ff10678>
    8000033c:	00000113          	li	sp,0
    80000340:	0020973b          	sllw	a4,ra,sp
    80000344:	12345eb7          	lui	t4,0x12345
    80000348:	678e8e9b          	addiw	t4,t4,1656
    8000034c:	02c00193          	li	gp,44
    80000350:	3dd71463          	bne	a4,t4,80000718 <fail>

0000000080000354 <test_45>:
    80000354:	fff120b7          	lui	ra,0xfff12
    80000358:	3450809b          	addiw	ra,ra,837
    8000035c:	00c09093          	slli	ra,ra,0xc
    80000360:	67808093          	addi	ra,ra,1656 # fffffffffff12678 <_end+0xffffffff7ff10678>
    80000364:	00400113          	li	sp,4
    80000368:	0020973b          	sllw	a4,ra,sp
    8000036c:	23456eb7          	lui	t4,0x23456
    80000370:	780e8e9b          	addiw	t4,t4,1920
    80000374:	02d00193          	li	gp,45
    80000378:	3bd71063          	bne	a4,t4,80000718 <fail>

000000008000037c <test_46>:
    8000037c:	000920b7          	lui	ra,0x92
    80000380:	3450809b          	addiw	ra,ra,837
    80000384:	00c09093          	slli	ra,ra,0xc
    80000388:	67808093          	addi	ra,ra,1656 # 92678 <_start-0x7ff6d988>
    8000038c:	00000113          	li	sp,0
    80000390:	0020973b          	sllw	a4,ra,sp
    80000394:	92345eb7          	lui	t4,0x92345
    80000398:	678e8e9b          	addiw	t4,t4,1656
    8000039c:	02e00193          	li	gp,46
    800003a0:	37d71c63          	bne	a4,t4,80000718 <fail>

00000000800003a4 <test_47>:
    800003a4:	000990b7          	lui	ra,0x99
    800003a8:	3450809b          	addiw	ra,ra,837
    800003ac:	00c09093          	slli	ra,ra,0xc
    800003b0:	67808093          	addi	ra,ra,1656 # 99678 <_start-0x7ff66988>
    800003b4:	00400113          	li	sp,4
    800003b8:	0020973b          	sllw	a4,ra,sp
    800003bc:	93456eb7          	lui	t4,0x93456
    800003c0:	780e8e9b          	addiw	t4,t4,1920
    800003c4:	02f00193          	li	gp,47
    800003c8:	35d71863          	bne	a4,t4,80000718 <fail>

00000000800003cc <test_22>:
    800003cc:	00100093          	li	ra,1
    800003d0:	00700113          	li	sp,7
    800003d4:	002090bb          	sllw	ra,ra,sp
    800003d8:	08000e93          	li	t4,128
    800003dc:	01600193          	li	gp,22
    800003e0:	33d09c63          	bne	ra,t4,80000718 <fail>

00000000800003e4 <test_23>:
    800003e4:	00100093          	li	ra,1
    800003e8:	00e00113          	li	sp,14
    800003ec:	0020913b          	sllw	sp,ra,sp
    800003f0:	00004eb7          	lui	t4,0x4
    800003f4:	01700193          	li	gp,23
    800003f8:	33d11063          	bne	sp,t4,80000718 <fail>

00000000800003fc <test_24>:
    800003fc:	00300093          	li	ra,3
    80000400:	001090bb          	sllw	ra,ra,ra
    80000404:	01800e93          	li	t4,24
    80000408:	01800193          	li	gp,24
    8000040c:	31d09663          	bne	ra,t4,80000718 <fail>

0000000080000410 <test_25>:
    80000410:	00000213          	li	tp,0
    80000414:	00100093          	li	ra,1
    80000418:	00700113          	li	sp,7
    8000041c:	0020973b          	sllw	a4,ra,sp
    80000420:	00070313          	mv	t1,a4
    80000424:	00120213          	addi	tp,tp,1 # 1 <_start-0x7fffffff>
    80000428:	00200293          	li	t0,2
    8000042c:	fe5214e3          	bne	tp,t0,80000414 <test_25+0x4>
    80000430:	08000e93          	li	t4,128
    80000434:	01900193          	li	gp,25
    80000438:	2fd31063          	bne	t1,t4,80000718 <fail>

000000008000043c <test_26>:
    8000043c:	00000213          	li	tp,0
    80000440:	00100093          	li	ra,1
    80000444:	00e00113          	li	sp,14
    80000448:	0020973b          	sllw	a4,ra,sp
    8000044c:	00000013          	nop
    80000450:	00070313          	mv	t1,a4
    80000454:	00120213          	addi	tp,tp,1 # 1 <_start-0x7fffffff>
    80000458:	00200293          	li	t0,2
    8000045c:	fe5212e3          	bne	tp,t0,80000440 <test_26+0x4>
    80000460:	00004eb7          	lui	t4,0x4
    80000464:	01a00193          	li	gp,26
    80000468:	2bd31863          	bne	t1,t4,80000718 <fail>

000000008000046c <test_27>:
    8000046c:	00000213          	li	tp,0
    80000470:	00100093          	li	ra,1
    80000474:	01f00113          	li	sp,31
    80000478:	0020973b          	sllw	a4,ra,sp
    8000047c:	00000013          	nop
    80000480:	00000013          	nop
    80000484:	00070313          	mv	t1,a4
    80000488:	00120213          	addi	tp,tp,1 # 1 <_start-0x7fffffff>
    8000048c:	00200293          	li	t0,2
    80000490:	fe5210e3          	bne	tp,t0,80000470 <test_27+0x4>
    80000494:	80000eb7          	lui	t4,0x80000
    80000498:	01b00193          	li	gp,27
    8000049c:	27d31e63          	bne	t1,t4,80000718 <fail>

00000000800004a0 <test_28>:
    800004a0:	00000213          	li	tp,0
    800004a4:	00100093          	li	ra,1
    800004a8:	00700113          	li	sp,7
    800004ac:	0020973b          	sllw	a4,ra,sp
    800004b0:	00120213          	addi	tp,tp,1 # 1 <_start-0x7fffffff>
    800004b4:	00200293          	li	t0,2
    800004b8:	fe5216e3          	bne	tp,t0,800004a4 <test_28+0x4>
    800004bc:	08000e93          	li	t4,128
    800004c0:	01c00193          	li	gp,28
    800004c4:	25d71a63          	bne	a4,t4,80000718 <fail>

00000000800004c8 <test_29>:
    800004c8:	00000213          	li	tp,0
    800004cc:	00100093          	li	ra,1
    800004d0:	00e00113          	li	sp,14
    800004d4:	00000013          	nop
    800004d8:	0020973b          	sllw	a4,ra,sp
    800004dc:	00120213          	addi	tp,tp,1 # 1 <_start-0x7fffffff>
    800004e0:	00200293          	li	t0,2
    800004e4:	fe5214e3          	bne	tp,t0,800004cc <test_29+0x4>
    800004e8:	00004eb7          	lui	t4,0x4
    800004ec:	01d00193          	li	gp,29
    800004f0:	23d71463          	bne	a4,t4,80000718 <fail>

00000000800004f4 <test_30>:
    800004f4:	00000213          	li	tp,0
    800004f8:	00100093          	li	ra,1
    800004fc:	01f00113          	li	sp,31
    80000500:	00000013          	nop
    80000504:	00000013          	nop
    80000508:	0020973b          	sllw	a4,ra,sp
    8000050c:	00120213          	addi	tp,tp,1 # 1 <_start-0x7fffffff>
    80000510:	00200293          	li	t0,2
    80000514:	fe5212e3          	bne	tp,t0,800004f8 <test_30+0x4>
    80000518:	80000eb7          	lui	t4,0x80000
    8000051c:	01e00193          	li	gp,30
    80000520:	1fd71c63          	bne	a4,t4,80000718 <fail>

0000000080000524 <test_31>:
    80000524:	00000213          	li	tp,0
    80000528:	00100093          	li	ra,1
    8000052c:	00000013          	nop
    80000530:	00700113          	li	sp,7
    80000534:	0020973b          	sllw	a4,ra,sp
    80000538:	00120213          	addi	tp,tp,1 # 1 <_start-0x7fffffff>
    8000053c:	00200293          	li	t0,2
    80000540:	fe5214e3          	bne	tp,t0,80000528 <test_31+0x4>
    80000544:	08000e93          	li	t4,128
    80000548:	01f00193          	li	gp,31
    8000054c:	1dd71663          	bne	a4,t4,80000718 <fail>

0000000080000550 <test_32>:
    80000550:	00000213          	li	tp,0
    80000554:	00100093          	li	ra,1
    80000558:	00000013          	nop
    8000055c:	00e00113          	li	sp,14
    80000560:	00000013          	nop
    80000564:	0020973b          	sllw	a4,ra,sp
    80000568:	00120213          	addi	tp,tp,1 # 1 <_start-0x7fffffff>
    8000056c:	00200293          	li	t0,2
    80000570:	fe5212e3          	bne	tp,t0,80000554 <test_32+0x4>
    80000574:	00004eb7          	lui	t4,0x4
    80000578:	02000193          	li	gp,32
    8000057c:	19d71e63          	bne	a4,t4,80000718 <fail>

0000000080000580 <test_33>:
    80000580:	00000213          	li	tp,0
    80000584:	00100093          	li	ra,1
    80000588:	00000013          	nop
    8000058c:	00000013          	nop
    80000590:	01f00113          	li	sp,31
    80000594:	0020973b          	sllw	a4,ra,sp
    80000598:	00120213          	addi	tp,tp,1 # 1 <_start-0x7fffffff>
    8000059c:	00200293          	li	t0,2
    800005a0:	fe5212e3          	bne	tp,t0,80000584 <test_33+0x4>
    800005a4:	80000eb7          	lui	t4,0x80000
    800005a8:	02100193          	li	gp,33
    800005ac:	17d71663          	bne	a4,t4,80000718 <fail>

00000000800005b0 <test_34>:
    800005b0:	00000213          	li	tp,0
    800005b4:	00700113          	li	sp,7
    800005b8:	00100093          	li	ra,1
    800005bc:	0020973b          	sllw	a4,ra,sp
    800005c0:	00120213          	addi	tp,tp,1 # 1 <_start-0x7fffffff>
    800005c4:	00200293          	li	t0,2
    800005c8:	fe5216e3          	bne	tp,t0,800005b4 <test_34+0x4>
    800005cc:	08000e93          	li	t4,128
    800005d0:	02200193          	li	gp,34
    800005d4:	15d71263          	bne	a4,t4,80000718 <fail>

00000000800005d8 <test_35>:
    800005d8:	00000213          	li	tp,0
    800005dc:	00e00113          	li	sp,14
    800005e0:	00100093          	li	ra,1
    800005e4:	00000013          	nop
    800005e8:	0020973b          	sllw	a4,ra,sp
    800005ec:	00120213          	addi	tp,tp,1 # 1 <_start-0x7fffffff>
    800005f0:	00200293          	li	t0,2
    800005f4:	fe5214e3          	bne	tp,t0,800005dc <test_35+0x4>
    800005f8:	00004eb7          	lui	t4,0x4
    800005fc:	02300193          	li	gp,35
    80000600:	11d71c63          	bne	a4,t4,80000718 <fail>

0000000080000604 <test_36>:
    80000604:	00000213          	li	tp,0
    80000608:	01f00113          	li	sp,31
    8000060c:	00100093          	li	ra,1
    80000610:	00000013          	nop
    80000614:	00000013          	nop
    80000618:	0020973b          	sllw	a4,ra,sp
    8000061c:	00120213          	addi	tp,tp,1 # 1 <_start-0x7fffffff>
    80000620:	00200293          	li	t0,2
    80000624:	fe5212e3          	bne	tp,t0,80000608 <test_36+0x4>
    80000628:	80000eb7          	lui	t4,0x80000
    8000062c:	02400193          	li	gp,36
    80000630:	0fd71463          	bne	a4,t4,80000718 <fail>

0000000080000634 <test_37>:
    80000634:	00000213          	li	tp,0
    80000638:	00700113          	li	sp,7
    8000063c:	00000013          	nop
    80000640:	00100093          	li	ra,1
    80000644:	0020973b          	sllw	a4,ra,sp
    80000648:	00120213          	addi	tp,tp,1 # 1 <_start-0x7fffffff>
    8000064c:	00200293          	li	t0,2
    80000650:	fe5214e3          	bne	tp,t0,80000638 <test_37+0x4>
    80000654:	08000e93          	li	t4,128
    80000658:	02500193          	li	gp,37
    8000065c:	0bd71e63          	bne	a4,t4,80000718 <fail>

0000000080000660 <test_38>:
    80000660:	00000213          	li	tp,0
    80000664:	00e00113          	li	sp,14
    80000668:	00000013          	nop
    8000066c:	00100093          	li	ra,1
    80000670:	00000013          	nop
    80000674:	0020973b          	sllw	a4,ra,sp
    80000678:	00120213          	addi	tp,tp,1 # 1 <_start-0x7fffffff>
    8000067c:	00200293          	li	t0,2
    80000680:	fe5212e3          	bne	tp,t0,80000664 <test_38+0x4>
    80000684:	00004eb7          	lui	t4,0x4
    80000688:	02600193          	li	gp,38
    8000068c:	09d71663          	bne	a4,t4,80000718 <fail>

0000000080000690 <test_39>:
    80000690:	00000213          	li	tp,0
    80000694:	01f00113          	li	sp,31
    80000698:	00000013          	nop
    8000069c:	00000013          	nop
    800006a0:	00100093          	li	ra,1
    800006a4:	0020973b          	sllw	a4,ra,sp
    800006a8:	00120213          	addi	tp,tp,1 # 1 <_start-0x7fffffff>
    800006ac:	00200293          	li	t0,2
    800006b0:	fe5212e3          	bne	tp,t0,80000694 <test_39+0x4>
    800006b4:	80000eb7          	lui	t4,0x80000
    800006b8:	02700193          	li	gp,39
    800006bc:	05d71e63          	bne	a4,t4,80000718 <fail>

00000000800006c0 <test_40>:
    800006c0:	00f00093          	li	ra,15
    800006c4:	0010113b          	sllw	sp,zero,ra
    800006c8:	00000e93          	li	t4,0
    800006cc:	02800193          	li	gp,40
    800006d0:	05d11463          	bne	sp,t4,80000718 <fail>

00000000800006d4 <test_41>:
    800006d4:	02000093          	li	ra,32
    800006d8:	0000913b          	sllw	sp,ra,zero
    800006dc:	02000e93          	li	t4,32
    800006e0:	02900193          	li	gp,41
    800006e4:	03d11a63          	bne	sp,t4,80000718 <fail>

00000000800006e8 <test_42>:
    800006e8:	000010bb          	sllw	ra,zero,zero
    800006ec:	00000e93          	li	t4,0
    800006f0:	02a00193          	li	gp,42
    800006f4:	03d09263          	bne	ra,t4,80000718 <fail>

00000000800006f8 <test_43>:
    800006f8:	40000093          	li	ra,1024
    800006fc:	00001137          	lui	sp,0x1
    80000700:	8001011b          	addiw	sp,sp,-2048
    80000704:	0020903b          	sllw	zero,ra,sp
    80000708:	00000e93          	li	t4,0
    8000070c:	02b00193          	li	gp,43
    80000710:	01d01463          	bne	zero,t4,80000718 <fail>
    80000714:	02301063          	bne	zero,gp,80000734 <pass>

0000000080000718 <fail>:
    80000718:	0ff0000f          	fence
    8000071c:	00018063          	beqz	gp,8000071c <fail+0x4>
    80000720:	00119193          	slli	gp,gp,0x1
    80000724:	0011e193          	ori	gp,gp,1
    80000728:	05d00893          	li	a7,93
    8000072c:	00018513          	mv	a0,gp
    80000730:	00000073          	ecall

0000000080000734 <pass>:
    80000734:	0ff0000f          	fence
    80000738:	00100193          	li	gp,1
    8000073c:	05d00893          	li	a7,93
    80000740:	00000513          	li	a0,0
    80000744:	00000073          	ecall
    80000748:	c0001073          	unimp
    8000074c:	0000                	unimp
    8000074e:	0000                	unimp
    80000750:	0000                	unimp
    80000752:	0000                	unimp
    80000754:	0000                	unimp
    80000756:	0000                	unimp
    80000758:	0000                	unimp
    8000075a:	0000                	unimp
    8000075c:	0000                	unimp
    8000075e:	0000                	unimp
    80000760:	0000                	unimp
    80000762:	0000                	unimp
    80000764:	0000                	unimp
    80000766:	0000                	unimp
    80000768:	0000                	unimp
    8000076a:	0000                	unimp
    8000076c:	0000                	unimp
    8000076e:	0000                	unimp
    80000770:	0000                	unimp
    80000772:	0000                	unimp
    80000774:	0000                	unimp
    80000776:	0000                	unimp
    80000778:	0000                	unimp
    8000077a:	0000                	unimp
    8000077c:	0000                	unimp
    8000077e:	0000                	unimp
    80000780:	0000                	unimp
    80000782:	0000                	unimp
