
rv64ui-p-slt:     file format elf64-littleriscv


Disassembly of section .text.init:

0000000080000000 <_start>:
    80000000:	04c0006f          	j	8000004c <reset_vector>

0000000080000004 <trap_vector>:
    80000004:	34202f73          	csrr	t5,mcause
    80000008:	00800f93          	li	t6,8
    8000000c:	03ff0a63          	beq	t5,t6,80000040 <write_tohost>
    80000010:	00900f93          	li	t6,9
    80000014:	03ff0663          	beq	t5,t6,80000040 <write_tohost>
    80000018:	00b00f93          	li	t6,11
    8000001c:	03ff0263          	beq	t5,t6,80000040 <write_tohost>
    80000020:	80000f17          	auipc	t5,0x80000
    80000024:	fe0f0f13          	addi	t5,t5,-32 # 0 <_start-0x80000000>
    80000028:	000f0463          	beqz	t5,80000030 <trap_vector+0x2c>
    8000002c:	000f0067          	jr	t5
    80000030:	34202f73          	csrr	t5,mcause
    80000034:	000f5463          	bgez	t5,8000003c <handle_exception>
    80000038:	0040006f          	j	8000003c <handle_exception>

000000008000003c <handle_exception>:
    8000003c:	5391e193          	ori	gp,gp,1337

0000000080000040 <write_tohost>:
    80000040:	00001f17          	auipc	t5,0x1
    80000044:	fc3f2023          	sw	gp,-64(t5) # 80001000 <tohost>
    80000048:	ff9ff06f          	j	80000040 <write_tohost>

000000008000004c <reset_vector>:
    8000004c:	f1402573          	csrr	a0,mhartid
    80000050:	00051063          	bnez	a0,80000050 <reset_vector+0x4>
    80000054:	00000297          	auipc	t0,0x0
    80000058:	01028293          	addi	t0,t0,16 # 80000064 <reset_vector+0x18>
    8000005c:	30529073          	csrw	mtvec,t0
    80000060:	18005073          	csrwi	satp,0
    80000064:	00000297          	auipc	t0,0x0
    80000068:	02428293          	addi	t0,t0,36 # 80000088 <reset_vector+0x3c>
    8000006c:	30529073          	csrw	mtvec,t0
    80000070:	0010029b          	addiw	t0,zero,1
    80000074:	03529293          	slli	t0,t0,0x35
    80000078:	fff28293          	addi	t0,t0,-1
    8000007c:	3b029073          	csrw	pmpaddr0,t0
    80000080:	01f00293          	li	t0,31
    80000084:	3a029073          	csrw	pmpcfg0,t0
    80000088:	00000297          	auipc	t0,0x0
    8000008c:	01828293          	addi	t0,t0,24 # 800000a0 <reset_vector+0x54>
    80000090:	30529073          	csrw	mtvec,t0
    80000094:	30205073          	csrwi	medeleg,0
    80000098:	30305073          	csrwi	mideleg,0
    8000009c:	30405073          	csrwi	mie,0
    800000a0:	00000193          	li	gp,0
    800000a4:	00000297          	auipc	t0,0x0
    800000a8:	f6028293          	addi	t0,t0,-160 # 80000004 <trap_vector>
    800000ac:	30529073          	csrw	mtvec,t0
    800000b0:	00100513          	li	a0,1
    800000b4:	01f51513          	slli	a0,a0,0x1f
    800000b8:	00055c63          	bgez	a0,800000d0 <reset_vector+0x84>
    800000bc:	0ff0000f          	fence
    800000c0:	00100193          	li	gp,1
    800000c4:	05d00893          	li	a7,93
    800000c8:	00000513          	li	a0,0
    800000cc:	00000073          	ecall
    800000d0:	80000297          	auipc	t0,0x80000
    800000d4:	f3028293          	addi	t0,t0,-208 # 0 <_start-0x80000000>
    800000d8:	00028e63          	beqz	t0,800000f4 <reset_vector+0xa8>
    800000dc:	10529073          	csrw	stvec,t0
    800000e0:	0000b2b7          	lui	t0,0xb
    800000e4:	1092829b          	addiw	t0,t0,265
    800000e8:	30229073          	csrw	medeleg,t0
    800000ec:	30202373          	csrr	t1,medeleg
    800000f0:	f46296e3          	bne	t0,t1,8000003c <handle_exception>
    800000f4:	30005073          	csrwi	mstatus,0
    800000f8:	00000297          	auipc	t0,0x0
    800000fc:	01428293          	addi	t0,t0,20 # 8000010c <test_2>
    80000100:	34129073          	csrw	mepc,t0
    80000104:	f1402573          	csrr	a0,mhartid
    80000108:	30200073          	mret

000000008000010c <test_2>:
    8000010c:	00000093          	li	ra,0
    80000110:	00000113          	li	sp,0
    80000114:	0020a733          	slt	a4,ra,sp
    80000118:	00000e93          	li	t4,0
    8000011c:	00200193          	li	gp,2
    80000120:	4bd71a63          	bne	a4,t4,800005d4 <fail>

0000000080000124 <test_3>:
    80000124:	00100093          	li	ra,1
    80000128:	00100113          	li	sp,1
    8000012c:	0020a733          	slt	a4,ra,sp
    80000130:	00000e93          	li	t4,0
    80000134:	00300193          	li	gp,3
    80000138:	49d71e63          	bne	a4,t4,800005d4 <fail>

000000008000013c <test_4>:
    8000013c:	00300093          	li	ra,3
    80000140:	00700113          	li	sp,7
    80000144:	0020a733          	slt	a4,ra,sp
    80000148:	00100e93          	li	t4,1
    8000014c:	00400193          	li	gp,4
    80000150:	49d71263          	bne	a4,t4,800005d4 <fail>

0000000080000154 <test_5>:
    80000154:	00700093          	li	ra,7
    80000158:	00300113          	li	sp,3
    8000015c:	0020a733          	slt	a4,ra,sp
    80000160:	00000e93          	li	t4,0
    80000164:	00500193          	li	gp,5
    80000168:	47d71663          	bne	a4,t4,800005d4 <fail>

000000008000016c <test_6>:
    8000016c:	00000093          	li	ra,0
    80000170:	ffff8137          	lui	sp,0xffff8
    80000174:	0020a733          	slt	a4,ra,sp
    80000178:	00000e93          	li	t4,0
    8000017c:	00600193          	li	gp,6
    80000180:	45d71a63          	bne	a4,t4,800005d4 <fail>

0000000080000184 <test_7>:
    80000184:	800000b7          	lui	ra,0x80000
    80000188:	00000113          	li	sp,0
    8000018c:	0020a733          	slt	a4,ra,sp
    80000190:	00100e93          	li	t4,1
    80000194:	00700193          	li	gp,7
    80000198:	43d71e63          	bne	a4,t4,800005d4 <fail>

000000008000019c <test_8>:
    8000019c:	800000b7          	lui	ra,0x80000
    800001a0:	ffff8137          	lui	sp,0xffff8
    800001a4:	0020a733          	slt	a4,ra,sp
    800001a8:	00100e93          	li	t4,1
    800001ac:	00800193          	li	gp,8
    800001b0:	43d71263          	bne	a4,t4,800005d4 <fail>

00000000800001b4 <test_9>:
    800001b4:	00000093          	li	ra,0
    800001b8:	00008137          	lui	sp,0x8
    800001bc:	fff1011b          	addiw	sp,sp,-1
    800001c0:	0020a733          	slt	a4,ra,sp
    800001c4:	00100e93          	li	t4,1
    800001c8:	00900193          	li	gp,9
    800001cc:	41d71463          	bne	a4,t4,800005d4 <fail>

00000000800001d0 <test_10>:
    800001d0:	800000b7          	lui	ra,0x80000
    800001d4:	fff0809b          	addiw	ra,ra,-1
    800001d8:	00000113          	li	sp,0
    800001dc:	0020a733          	slt	a4,ra,sp
    800001e0:	00000e93          	li	t4,0
    800001e4:	00a00193          	li	gp,10
    800001e8:	3fd71663          	bne	a4,t4,800005d4 <fail>

00000000800001ec <test_11>:
    800001ec:	800000b7          	lui	ra,0x80000
    800001f0:	fff0809b          	addiw	ra,ra,-1
    800001f4:	00008137          	lui	sp,0x8
    800001f8:	fff1011b          	addiw	sp,sp,-1
    800001fc:	0020a733          	slt	a4,ra,sp
    80000200:	00000e93          	li	t4,0
    80000204:	00b00193          	li	gp,11
    80000208:	3dd71663          	bne	a4,t4,800005d4 <fail>

000000008000020c <test_12>:
    8000020c:	800000b7          	lui	ra,0x80000
    80000210:	00008137          	lui	sp,0x8
    80000214:	fff1011b          	addiw	sp,sp,-1
    80000218:	0020a733          	slt	a4,ra,sp
    8000021c:	00100e93          	li	t4,1
    80000220:	00c00193          	li	gp,12
    80000224:	3bd71863          	bne	a4,t4,800005d4 <fail>

0000000080000228 <test_13>:
    80000228:	800000b7          	lui	ra,0x80000
    8000022c:	fff0809b          	addiw	ra,ra,-1
    80000230:	ffff8137          	lui	sp,0xffff8
    80000234:	0020a733          	slt	a4,ra,sp
    80000238:	00000e93          	li	t4,0
    8000023c:	00d00193          	li	gp,13
    80000240:	39d71a63          	bne	a4,t4,800005d4 <fail>

0000000080000244 <test_14>:
    80000244:	00000093          	li	ra,0
    80000248:	fff00113          	li	sp,-1
    8000024c:	0020a733          	slt	a4,ra,sp
    80000250:	00000e93          	li	t4,0
    80000254:	00e00193          	li	gp,14
    80000258:	37d71e63          	bne	a4,t4,800005d4 <fail>

000000008000025c <test_15>:
    8000025c:	fff00093          	li	ra,-1
    80000260:	00100113          	li	sp,1
    80000264:	0020a733          	slt	a4,ra,sp
    80000268:	00100e93          	li	t4,1
    8000026c:	00f00193          	li	gp,15
    80000270:	37d71263          	bne	a4,t4,800005d4 <fail>

0000000080000274 <test_16>:
    80000274:	fff00093          	li	ra,-1
    80000278:	fff00113          	li	sp,-1
    8000027c:	0020a733          	slt	a4,ra,sp
    80000280:	00000e93          	li	t4,0
    80000284:	01000193          	li	gp,16
    80000288:	35d71663          	bne	a4,t4,800005d4 <fail>

000000008000028c <test_17>:
    8000028c:	00e00093          	li	ra,14
    80000290:	00d00113          	li	sp,13
    80000294:	0020a0b3          	slt	ra,ra,sp
    80000298:	00000e93          	li	t4,0
    8000029c:	01100193          	li	gp,17
    800002a0:	33d09a63          	bne	ra,t4,800005d4 <fail>

00000000800002a4 <test_18>:
    800002a4:	00b00093          	li	ra,11
    800002a8:	00d00113          	li	sp,13
    800002ac:	0020a133          	slt	sp,ra,sp
    800002b0:	00100e93          	li	t4,1
    800002b4:	01200193          	li	gp,18
    800002b8:	31d11e63          	bne	sp,t4,800005d4 <fail>

00000000800002bc <test_19>:
    800002bc:	00d00093          	li	ra,13
    800002c0:	0010a0b3          	slt	ra,ra,ra
    800002c4:	00000e93          	li	t4,0
    800002c8:	01300193          	li	gp,19
    800002cc:	31d09463          	bne	ra,t4,800005d4 <fail>

00000000800002d0 <test_20>:
    800002d0:	00000213          	li	tp,0
    800002d4:	00b00093          	li	ra,11
    800002d8:	00d00113          	li	sp,13
    800002dc:	0020a733          	slt	a4,ra,sp
    800002e0:	00070313          	mv	t1,a4
    800002e4:	00120213          	addi	tp,tp,1 # 1 <_start-0x7fffffff>
    800002e8:	00200293          	li	t0,2
    800002ec:	fe5214e3          	bne	tp,t0,800002d4 <test_20+0x4>
    800002f0:	00100e93          	li	t4,1
    800002f4:	01400193          	li	gp,20
    800002f8:	2dd31e63          	bne	t1,t4,800005d4 <fail>

00000000800002fc <test_21>:
    800002fc:	00000213          	li	tp,0
    80000300:	00e00093          	li	ra,14
    80000304:	00d00113          	li	sp,13
    80000308:	0020a733          	slt	a4,ra,sp
    8000030c:	00000013          	nop
    80000310:	00070313          	mv	t1,a4
    80000314:	00120213          	addi	tp,tp,1 # 1 <_start-0x7fffffff>
    80000318:	00200293          	li	t0,2
    8000031c:	fe5212e3          	bne	tp,t0,80000300 <test_21+0x4>
    80000320:	00000e93          	li	t4,0
    80000324:	01500193          	li	gp,21
    80000328:	2bd31663          	bne	t1,t4,800005d4 <fail>

000000008000032c <test_22>:
    8000032c:	00000213          	li	tp,0
    80000330:	00c00093          	li	ra,12
    80000334:	00d00113          	li	sp,13
    80000338:	0020a733          	slt	a4,ra,sp
    8000033c:	00000013          	nop
    80000340:	00000013          	nop
    80000344:	00070313          	mv	t1,a4
    80000348:	00120213          	addi	tp,tp,1 # 1 <_start-0x7fffffff>
    8000034c:	00200293          	li	t0,2
    80000350:	fe5210e3          	bne	tp,t0,80000330 <test_22+0x4>
    80000354:	00100e93          	li	t4,1
    80000358:	01600193          	li	gp,22
    8000035c:	27d31c63          	bne	t1,t4,800005d4 <fail>

0000000080000360 <test_23>:
    80000360:	00000213          	li	tp,0
    80000364:	00e00093          	li	ra,14
    80000368:	00d00113          	li	sp,13
    8000036c:	0020a733          	slt	a4,ra,sp
    80000370:	00120213          	addi	tp,tp,1 # 1 <_start-0x7fffffff>
    80000374:	00200293          	li	t0,2
    80000378:	fe5216e3          	bne	tp,t0,80000364 <test_23+0x4>
    8000037c:	00000e93          	li	t4,0
    80000380:	01700193          	li	gp,23
    80000384:	25d71863          	bne	a4,t4,800005d4 <fail>

0000000080000388 <test_24>:
    80000388:	00000213          	li	tp,0
    8000038c:	00b00093          	li	ra,11
    80000390:	00d00113          	li	sp,13
    80000394:	00000013          	nop
    80000398:	0020a733          	slt	a4,ra,sp
    8000039c:	00120213          	addi	tp,tp,1 # 1 <_start-0x7fffffff>
    800003a0:	00200293          	li	t0,2
    800003a4:	fe5214e3          	bne	tp,t0,8000038c <test_24+0x4>
    800003a8:	00100e93          	li	t4,1
    800003ac:	01800193          	li	gp,24
    800003b0:	23d71263          	bne	a4,t4,800005d4 <fail>

00000000800003b4 <test_25>:
    800003b4:	00000213          	li	tp,0
    800003b8:	00f00093          	li	ra,15
    800003bc:	00d00113          	li	sp,13
    800003c0:	00000013          	nop
    800003c4:	00000013          	nop
    800003c8:	0020a733          	slt	a4,ra,sp
    800003cc:	00120213          	addi	tp,tp,1 # 1 <_start-0x7fffffff>
    800003d0:	00200293          	li	t0,2
    800003d4:	fe5212e3          	bne	tp,t0,800003b8 <test_25+0x4>
    800003d8:	00000e93          	li	t4,0
    800003dc:	01900193          	li	gp,25
    800003e0:	1fd71a63          	bne	a4,t4,800005d4 <fail>

00000000800003e4 <test_26>:
    800003e4:	00000213          	li	tp,0
    800003e8:	00a00093          	li	ra,10
    800003ec:	00000013          	nop
    800003f0:	00d00113          	li	sp,13
    800003f4:	0020a733          	slt	a4,ra,sp
    800003f8:	00120213          	addi	tp,tp,1 # 1 <_start-0x7fffffff>
    800003fc:	00200293          	li	t0,2
    80000400:	fe5214e3          	bne	tp,t0,800003e8 <test_26+0x4>
    80000404:	00100e93          	li	t4,1
    80000408:	01a00193          	li	gp,26
    8000040c:	1dd71463          	bne	a4,t4,800005d4 <fail>

0000000080000410 <test_27>:
    80000410:	00000213          	li	tp,0
    80000414:	01000093          	li	ra,16
    80000418:	00000013          	nop
    8000041c:	00d00113          	li	sp,13
    80000420:	00000013          	nop
    80000424:	0020a733          	slt	a4,ra,sp
    80000428:	00120213          	addi	tp,tp,1 # 1 <_start-0x7fffffff>
    8000042c:	00200293          	li	t0,2
    80000430:	fe5212e3          	bne	tp,t0,80000414 <test_27+0x4>
    80000434:	00000e93          	li	t4,0
    80000438:	01b00193          	li	gp,27
    8000043c:	19d71c63          	bne	a4,t4,800005d4 <fail>

0000000080000440 <test_28>:
    80000440:	00000213          	li	tp,0
    80000444:	00900093          	li	ra,9
    80000448:	00000013          	nop
    8000044c:	00000013          	nop
    80000450:	00d00113          	li	sp,13
    80000454:	0020a733          	slt	a4,ra,sp
    80000458:	00120213          	addi	tp,tp,1 # 1 <_start-0x7fffffff>
    8000045c:	00200293          	li	t0,2
    80000460:	fe5212e3          	bne	tp,t0,80000444 <test_28+0x4>
    80000464:	00100e93          	li	t4,1
    80000468:	01c00193          	li	gp,28
    8000046c:	17d71463          	bne	a4,t4,800005d4 <fail>

0000000080000470 <test_29>:
    80000470:	00000213          	li	tp,0
    80000474:	00d00113          	li	sp,13
    80000478:	01100093          	li	ra,17
    8000047c:	0020a733          	slt	a4,ra,sp
    80000480:	00120213          	addi	tp,tp,1 # 1 <_start-0x7fffffff>
    80000484:	00200293          	li	t0,2
    80000488:	fe5216e3          	bne	tp,t0,80000474 <test_29+0x4>
    8000048c:	00000e93          	li	t4,0
    80000490:	01d00193          	li	gp,29
    80000494:	15d71063          	bne	a4,t4,800005d4 <fail>

0000000080000498 <test_30>:
    80000498:	00000213          	li	tp,0
    8000049c:	00d00113          	li	sp,13
    800004a0:	00800093          	li	ra,8
    800004a4:	00000013          	nop
    800004a8:	0020a733          	slt	a4,ra,sp
    800004ac:	00120213          	addi	tp,tp,1 # 1 <_start-0x7fffffff>
    800004b0:	00200293          	li	t0,2
    800004b4:	fe5214e3          	bne	tp,t0,8000049c <test_30+0x4>
    800004b8:	00100e93          	li	t4,1
    800004bc:	01e00193          	li	gp,30
    800004c0:	11d71a63          	bne	a4,t4,800005d4 <fail>

00000000800004c4 <test_31>:
    800004c4:	00000213          	li	tp,0
    800004c8:	00d00113          	li	sp,13
    800004cc:	01200093          	li	ra,18
    800004d0:	00000013          	nop
    800004d4:	00000013          	nop
    800004d8:	0020a733          	slt	a4,ra,sp
    800004dc:	00120213          	addi	tp,tp,1 # 1 <_start-0x7fffffff>
    800004e0:	00200293          	li	t0,2
    800004e4:	fe5212e3          	bne	tp,t0,800004c8 <test_31+0x4>
    800004e8:	00000e93          	li	t4,0
    800004ec:	01f00193          	li	gp,31
    800004f0:	0fd71263          	bne	a4,t4,800005d4 <fail>

00000000800004f4 <test_32>:
    800004f4:	00000213          	li	tp,0
    800004f8:	00d00113          	li	sp,13
    800004fc:	00000013          	nop
    80000500:	00700093          	li	ra,7
    80000504:	0020a733          	slt	a4,ra,sp
    80000508:	00120213          	addi	tp,tp,1 # 1 <_start-0x7fffffff>
    8000050c:	00200293          	li	t0,2
    80000510:	fe5214e3          	bne	tp,t0,800004f8 <test_32+0x4>
    80000514:	00100e93          	li	t4,1
    80000518:	02000193          	li	gp,32
    8000051c:	0bd71c63          	bne	a4,t4,800005d4 <fail>

0000000080000520 <test_33>:
    80000520:	00000213          	li	tp,0
    80000524:	00d00113          	li	sp,13
    80000528:	00000013          	nop
    8000052c:	01300093          	li	ra,19
    80000530:	00000013          	nop
    80000534:	0020a733          	slt	a4,ra,sp
    80000538:	00120213          	addi	tp,tp,1 # 1 <_start-0x7fffffff>
    8000053c:	00200293          	li	t0,2
    80000540:	fe5212e3          	bne	tp,t0,80000524 <test_33+0x4>
    80000544:	00000e93          	li	t4,0
    80000548:	02100193          	li	gp,33
    8000054c:	09d71463          	bne	a4,t4,800005d4 <fail>

0000000080000550 <test_34>:
    80000550:	00000213          	li	tp,0
    80000554:	00d00113          	li	sp,13
    80000558:	00000013          	nop
    8000055c:	00000013          	nop
    80000560:	00600093          	li	ra,6
    80000564:	0020a733          	slt	a4,ra,sp
    80000568:	00120213          	addi	tp,tp,1 # 1 <_start-0x7fffffff>
    8000056c:	00200293          	li	t0,2
    80000570:	fe5212e3          	bne	tp,t0,80000554 <test_34+0x4>
    80000574:	00100e93          	li	t4,1
    80000578:	02200193          	li	gp,34
    8000057c:	05d71c63          	bne	a4,t4,800005d4 <fail>

0000000080000580 <test_35>:
    80000580:	fff00093          	li	ra,-1
    80000584:	00102133          	sgtz	sp,ra
    80000588:	00000e93          	li	t4,0
    8000058c:	02300193          	li	gp,35
    80000590:	05d11263          	bne	sp,t4,800005d4 <fail>

0000000080000594 <test_36>:
    80000594:	fff00093          	li	ra,-1
    80000598:	0000a133          	sltz	sp,ra
    8000059c:	00100e93          	li	t4,1
    800005a0:	02400193          	li	gp,36
    800005a4:	03d11863          	bne	sp,t4,800005d4 <fail>

00000000800005a8 <test_37>:
    800005a8:	000020b3          	sltz	ra,zero
    800005ac:	00000e93          	li	t4,0
    800005b0:	02500193          	li	gp,37
    800005b4:	03d09063          	bne	ra,t4,800005d4 <fail>

00000000800005b8 <test_38>:
    800005b8:	01000093          	li	ra,16
    800005bc:	01e00113          	li	sp,30
    800005c0:	0020a033          	slt	zero,ra,sp
    800005c4:	00000e93          	li	t4,0
    800005c8:	02600193          	li	gp,38
    800005cc:	01d01463          	bne	zero,t4,800005d4 <fail>
    800005d0:	02301063          	bne	zero,gp,800005f0 <pass>

00000000800005d4 <fail>:
    800005d4:	0ff0000f          	fence
    800005d8:	00018063          	beqz	gp,800005d8 <fail+0x4>
    800005dc:	00119193          	slli	gp,gp,0x1
    800005e0:	0011e193          	ori	gp,gp,1
    800005e4:	05d00893          	li	a7,93
    800005e8:	00018513          	mv	a0,gp
    800005ec:	00000073          	ecall

00000000800005f0 <pass>:
    800005f0:	0ff0000f          	fence
    800005f4:	00100193          	li	gp,1
    800005f8:	05d00893          	li	a7,93
    800005fc:	00000513          	li	a0,0
    80000600:	00000073          	ecall
    80000604:	c0001073          	unimp
    80000608:	0000                	unimp
    8000060a:	0000                	unimp
    8000060c:	0000                	unimp
    8000060e:	0000                	unimp
    80000610:	0000                	unimp
    80000612:	0000                	unimp
    80000614:	0000                	unimp
    80000616:	0000                	unimp
    80000618:	0000                	unimp
    8000061a:	0000                	unimp
    8000061c:	0000                	unimp
    8000061e:	0000                	unimp
    80000620:	0000                	unimp
    80000622:	0000                	unimp
    80000624:	0000                	unimp
    80000626:	0000                	unimp
    80000628:	0000                	unimp
    8000062a:	0000                	unimp
    8000062c:	0000                	unimp
    8000062e:	0000                	unimp
    80000630:	0000                	unimp
    80000632:	0000                	unimp
    80000634:	0000                	unimp
    80000636:	0000                	unimp
    80000638:	0000                	unimp
    8000063a:	0000                	unimp
    8000063c:	0000                	unimp
    8000063e:	0000                	unimp
    80000640:	0000                	unimp
    80000642:	0000                	unimp
