
rv64um-p-mulhsu:     file format elf64-littleriscv


Disassembly of section .text.init:

0000000080000000 <_start>:
    80000000:	04c0006f          	j	8000004c <reset_vector>

0000000080000004 <trap_vector>:
    80000004:	34202f73          	csrr	t5,mcause
    80000008:	00800f93          	li	t6,8
    8000000c:	03ff0a63          	beq	t5,t6,80000040 <write_tohost>
    80000010:	00900f93          	li	t6,9
    80000014:	03ff0663          	beq	t5,t6,80000040 <write_tohost>
    80000018:	00b00f93          	li	t6,11
    8000001c:	03ff0263          	beq	t5,t6,80000040 <write_tohost>
    80000020:	80000f17          	auipc	t5,0x80000
    80000024:	fe0f0f13          	addi	t5,t5,-32 # 0 <_start-0x80000000>
    80000028:	000f0463          	beqz	t5,80000030 <trap_vector+0x2c>
    8000002c:	000f0067          	jr	t5
    80000030:	34202f73          	csrr	t5,mcause
    80000034:	000f5463          	bgez	t5,8000003c <handle_exception>
    80000038:	0040006f          	j	8000003c <handle_exception>

000000008000003c <handle_exception>:
    8000003c:	5391e193          	ori	gp,gp,1337

0000000080000040 <write_tohost>:
    80000040:	00001f17          	auipc	t5,0x1
    80000044:	fc3f2023          	sw	gp,-64(t5) # 80001000 <tohost>
    80000048:	ff9ff06f          	j	80000040 <write_tohost>

000000008000004c <reset_vector>:
    8000004c:	f1402573          	csrr	a0,mhartid
    80000050:	00051063          	bnez	a0,80000050 <reset_vector+0x4>
    80000054:	00000297          	auipc	t0,0x0
    80000058:	01028293          	addi	t0,t0,16 # 80000064 <reset_vector+0x18>
    8000005c:	30529073          	csrw	mtvec,t0
    80000060:	18005073          	csrwi	satp,0
    80000064:	00000297          	auipc	t0,0x0
    80000068:	02428293          	addi	t0,t0,36 # 80000088 <reset_vector+0x3c>
    8000006c:	30529073          	csrw	mtvec,t0
    80000070:	0010029b          	addiw	t0,zero,1
    80000074:	03529293          	slli	t0,t0,0x35
    80000078:	fff28293          	addi	t0,t0,-1
    8000007c:	3b029073          	csrw	pmpaddr0,t0
    80000080:	01f00293          	li	t0,31
    80000084:	3a029073          	csrw	pmpcfg0,t0
    80000088:	00000297          	auipc	t0,0x0
    8000008c:	01828293          	addi	t0,t0,24 # 800000a0 <reset_vector+0x54>
    80000090:	30529073          	csrw	mtvec,t0
    80000094:	30205073          	csrwi	medeleg,0
    80000098:	30305073          	csrwi	mideleg,0
    8000009c:	30405073          	csrwi	mie,0
    800000a0:	00000193          	li	gp,0
    800000a4:	00000297          	auipc	t0,0x0
    800000a8:	f6028293          	addi	t0,t0,-160 # 80000004 <trap_vector>
    800000ac:	30529073          	csrw	mtvec,t0
    800000b0:	00100513          	li	a0,1
    800000b4:	01f51513          	slli	a0,a0,0x1f
    800000b8:	00055c63          	bgez	a0,800000d0 <reset_vector+0x84>
    800000bc:	0ff0000f          	fence
    800000c0:	00100193          	li	gp,1
    800000c4:	05d00893          	li	a7,93
    800000c8:	00000513          	li	a0,0
    800000cc:	00000073          	ecall
    800000d0:	80000297          	auipc	t0,0x80000
    800000d4:	f3028293          	addi	t0,t0,-208 # 0 <_start-0x80000000>
    800000d8:	00028e63          	beqz	t0,800000f4 <reset_vector+0xa8>
    800000dc:	10529073          	csrw	stvec,t0
    800000e0:	0000b2b7          	lui	t0,0xb
    800000e4:	1092829b          	addiw	t0,t0,265
    800000e8:	30229073          	csrw	medeleg,t0
    800000ec:	30202373          	csrr	t1,medeleg
    800000f0:	f46296e3          	bne	t0,t1,8000003c <handle_exception>
    800000f4:	30005073          	csrwi	mstatus,0
    800000f8:	00000297          	auipc	t0,0x0
    800000fc:	01428293          	addi	t0,t0,20 # 8000010c <test_2>
    80000100:	34129073          	csrw	mepc,t0
    80000104:	f1402573          	csrr	a0,mhartid
    80000108:	30200073          	mret

000000008000010c <test_2>:
    8000010c:	00000093          	li	ra,0
    80000110:	00000113          	li	sp,0
    80000114:	0220a733          	mulhsu	a4,ra,sp
    80000118:	00000e93          	li	t4,0
    8000011c:	00200193          	li	gp,2
    80000120:	47d71063          	bne	a4,t4,80000580 <fail>

0000000080000124 <test_3>:
    80000124:	00100093          	li	ra,1
    80000128:	00100113          	li	sp,1
    8000012c:	0220a733          	mulhsu	a4,ra,sp
    80000130:	00000e93          	li	t4,0
    80000134:	00300193          	li	gp,3
    80000138:	45d71463          	bne	a4,t4,80000580 <fail>

000000008000013c <test_4>:
    8000013c:	00300093          	li	ra,3
    80000140:	00700113          	li	sp,7
    80000144:	0220a733          	mulhsu	a4,ra,sp
    80000148:	00000e93          	li	t4,0
    8000014c:	00400193          	li	gp,4
    80000150:	43d71863          	bne	a4,t4,80000580 <fail>

0000000080000154 <test_5>:
    80000154:	00000093          	li	ra,0
    80000158:	ffff8137          	lui	sp,0xffff8
    8000015c:	0220a733          	mulhsu	a4,ra,sp
    80000160:	00000e93          	li	t4,0
    80000164:	00500193          	li	gp,5
    80000168:	41d71c63          	bne	a4,t4,80000580 <fail>

000000008000016c <test_6>:
    8000016c:	800000b7          	lui	ra,0x80000
    80000170:	00000113          	li	sp,0
    80000174:	0220a733          	mulhsu	a4,ra,sp
    80000178:	00000e93          	li	t4,0
    8000017c:	00600193          	li	gp,6
    80000180:	41d71063          	bne	a4,t4,80000580 <fail>

0000000080000184 <test_7>:
    80000184:	800000b7          	lui	ra,0x80000
    80000188:	ffff8137          	lui	sp,0xffff8
    8000018c:	0220a733          	mulhsu	a4,ra,sp
    80000190:	80000eb7          	lui	t4,0x80000
    80000194:	00700193          	li	gp,7
    80000198:	3fd71463          	bne	a4,t4,80000580 <fail>

000000008000019c <test_8>:
    8000019c:	00d0009b          	addiw	ra,zero,13
    800001a0:	02009093          	slli	ra,ra,0x20
    800001a4:	00b0011b          	addiw	sp,zero,11
    800001a8:	02011113          	slli	sp,sp,0x20
    800001ac:	0220a0b3          	mulhsu	ra,ra,sp
    800001b0:	08f00e93          	li	t4,143
    800001b4:	00800193          	li	gp,8
    800001b8:	3dd09463          	bne	ra,t4,80000580 <fail>

00000000800001bc <test_9>:
    800001bc:	0070009b          	addiw	ra,zero,7
    800001c0:	02109093          	slli	ra,ra,0x21
    800001c4:	00b0011b          	addiw	sp,zero,11
    800001c8:	02011113          	slli	sp,sp,0x20
    800001cc:	0220a133          	mulhsu	sp,ra,sp
    800001d0:	09a00e93          	li	t4,154
    800001d4:	00900193          	li	gp,9
    800001d8:	3bd11463          	bne	sp,t4,80000580 <fail>

00000000800001dc <test_10>:
    800001dc:	00d0009b          	addiw	ra,zero,13
    800001e0:	02009093          	slli	ra,ra,0x20
    800001e4:	0210a0b3          	mulhsu	ra,ra,ra
    800001e8:	0a900e93          	li	t4,169
    800001ec:	00a00193          	li	gp,10
    800001f0:	39d09863          	bne	ra,t4,80000580 <fail>

00000000800001f4 <test_11>:
    800001f4:	00000213          	li	tp,0
    800001f8:	00d0009b          	addiw	ra,zero,13
    800001fc:	02009093          	slli	ra,ra,0x20
    80000200:	00b0011b          	addiw	sp,zero,11
    80000204:	02011113          	slli	sp,sp,0x20
    80000208:	0220a733          	mulhsu	a4,ra,sp
    8000020c:	00070313          	mv	t1,a4
    80000210:	00120213          	addi	tp,tp,1 # 1 <_start-0x7fffffff>
    80000214:	00200293          	li	t0,2
    80000218:	fe5210e3          	bne	tp,t0,800001f8 <test_11+0x4>
    8000021c:	08f00e93          	li	t4,143
    80000220:	00b00193          	li	gp,11
    80000224:	35d31e63          	bne	t1,t4,80000580 <fail>

0000000080000228 <test_12>:
    80000228:	00000213          	li	tp,0
    8000022c:	0070009b          	addiw	ra,zero,7
    80000230:	02109093          	slli	ra,ra,0x21
    80000234:	00b0011b          	addiw	sp,zero,11
    80000238:	02011113          	slli	sp,sp,0x20
    8000023c:	0220a733          	mulhsu	a4,ra,sp
    80000240:	00000013          	nop
    80000244:	00070313          	mv	t1,a4
    80000248:	00120213          	addi	tp,tp,1 # 1 <_start-0x7fffffff>
    8000024c:	00200293          	li	t0,2
    80000250:	fc521ee3          	bne	tp,t0,8000022c <test_12+0x4>
    80000254:	09a00e93          	li	t4,154
    80000258:	00c00193          	li	gp,12
    8000025c:	33d31263          	bne	t1,t4,80000580 <fail>

0000000080000260 <test_13>:
    80000260:	00000213          	li	tp,0
    80000264:	00f0009b          	addiw	ra,zero,15
    80000268:	02009093          	slli	ra,ra,0x20
    8000026c:	00b0011b          	addiw	sp,zero,11
    80000270:	02011113          	slli	sp,sp,0x20
    80000274:	0220a733          	mulhsu	a4,ra,sp
    80000278:	00000013          	nop
    8000027c:	00000013          	nop
    80000280:	00070313          	mv	t1,a4
    80000284:	00120213          	addi	tp,tp,1 # 1 <_start-0x7fffffff>
    80000288:	00200293          	li	t0,2
    8000028c:	fc521ce3          	bne	tp,t0,80000264 <test_13+0x4>
    80000290:	0a500e93          	li	t4,165
    80000294:	00d00193          	li	gp,13
    80000298:	2fd31463          	bne	t1,t4,80000580 <fail>

000000008000029c <test_14>:
    8000029c:	00000213          	li	tp,0
    800002a0:	00d0009b          	addiw	ra,zero,13
    800002a4:	02009093          	slli	ra,ra,0x20
    800002a8:	00b0011b          	addiw	sp,zero,11
    800002ac:	02011113          	slli	sp,sp,0x20
    800002b0:	0220a733          	mulhsu	a4,ra,sp
    800002b4:	00120213          	addi	tp,tp,1 # 1 <_start-0x7fffffff>
    800002b8:	00200293          	li	t0,2
    800002bc:	fe5212e3          	bne	tp,t0,800002a0 <test_14+0x4>
    800002c0:	08f00e93          	li	t4,143
    800002c4:	00e00193          	li	gp,14
    800002c8:	2bd71c63          	bne	a4,t4,80000580 <fail>

00000000800002cc <test_15>:
    800002cc:	00000213          	li	tp,0
    800002d0:	0070009b          	addiw	ra,zero,7
    800002d4:	02109093          	slli	ra,ra,0x21
    800002d8:	00b0011b          	addiw	sp,zero,11
    800002dc:	02011113          	slli	sp,sp,0x20
    800002e0:	00000013          	nop
    800002e4:	0220a733          	mulhsu	a4,ra,sp
    800002e8:	00120213          	addi	tp,tp,1 # 1 <_start-0x7fffffff>
    800002ec:	00200293          	li	t0,2
    800002f0:	fe5210e3          	bne	tp,t0,800002d0 <test_15+0x4>
    800002f4:	09a00e93          	li	t4,154
    800002f8:	00f00193          	li	gp,15
    800002fc:	29d71263          	bne	a4,t4,80000580 <fail>

0000000080000300 <test_16>:
    80000300:	00000213          	li	tp,0
    80000304:	00f0009b          	addiw	ra,zero,15
    80000308:	02009093          	slli	ra,ra,0x20
    8000030c:	00b0011b          	addiw	sp,zero,11
    80000310:	02011113          	slli	sp,sp,0x20
    80000314:	00000013          	nop
    80000318:	00000013          	nop
    8000031c:	0220a733          	mulhsu	a4,ra,sp
    80000320:	00120213          	addi	tp,tp,1 # 1 <_start-0x7fffffff>
    80000324:	00200293          	li	t0,2
    80000328:	fc521ee3          	bne	tp,t0,80000304 <test_16+0x4>
    8000032c:	0a500e93          	li	t4,165
    80000330:	01000193          	li	gp,16
    80000334:	25d71663          	bne	a4,t4,80000580 <fail>

0000000080000338 <test_17>:
    80000338:	00000213          	li	tp,0
    8000033c:	00d0009b          	addiw	ra,zero,13
    80000340:	02009093          	slli	ra,ra,0x20
    80000344:	00000013          	nop
    80000348:	00b0011b          	addiw	sp,zero,11
    8000034c:	02011113          	slli	sp,sp,0x20
    80000350:	0220a733          	mulhsu	a4,ra,sp
    80000354:	00120213          	addi	tp,tp,1 # 1 <_start-0x7fffffff>
    80000358:	00200293          	li	t0,2
    8000035c:	fe5210e3          	bne	tp,t0,8000033c <test_17+0x4>
    80000360:	08f00e93          	li	t4,143
    80000364:	01100193          	li	gp,17
    80000368:	21d71c63          	bne	a4,t4,80000580 <fail>

000000008000036c <test_18>:
    8000036c:	00000213          	li	tp,0
    80000370:	0070009b          	addiw	ra,zero,7
    80000374:	02109093          	slli	ra,ra,0x21
    80000378:	00000013          	nop
    8000037c:	00b0011b          	addiw	sp,zero,11
    80000380:	02011113          	slli	sp,sp,0x20
    80000384:	00000013          	nop
    80000388:	0220a733          	mulhsu	a4,ra,sp
    8000038c:	00120213          	addi	tp,tp,1 # 1 <_start-0x7fffffff>
    80000390:	00200293          	li	t0,2
    80000394:	fc521ee3          	bne	tp,t0,80000370 <test_18+0x4>
    80000398:	09a00e93          	li	t4,154
    8000039c:	01200193          	li	gp,18
    800003a0:	1fd71063          	bne	a4,t4,80000580 <fail>

00000000800003a4 <test_19>:
    800003a4:	00000213          	li	tp,0
    800003a8:	00f0009b          	addiw	ra,zero,15
    800003ac:	02009093          	slli	ra,ra,0x20
    800003b0:	00000013          	nop
    800003b4:	00000013          	nop
    800003b8:	00b0011b          	addiw	sp,zero,11
    800003bc:	02011113          	slli	sp,sp,0x20
    800003c0:	0220a733          	mulhsu	a4,ra,sp
    800003c4:	00120213          	addi	tp,tp,1 # 1 <_start-0x7fffffff>
    800003c8:	00200293          	li	t0,2
    800003cc:	fc521ee3          	bne	tp,t0,800003a8 <test_19+0x4>
    800003d0:	0a500e93          	li	t4,165
    800003d4:	01300193          	li	gp,19
    800003d8:	1bd71463          	bne	a4,t4,80000580 <fail>

00000000800003dc <test_20>:
    800003dc:	00000213          	li	tp,0
    800003e0:	00b0011b          	addiw	sp,zero,11
    800003e4:	02011113          	slli	sp,sp,0x20
    800003e8:	00d0009b          	addiw	ra,zero,13
    800003ec:	02009093          	slli	ra,ra,0x20
    800003f0:	0220a733          	mulhsu	a4,ra,sp
    800003f4:	00120213          	addi	tp,tp,1 # 1 <_start-0x7fffffff>
    800003f8:	00200293          	li	t0,2
    800003fc:	fe5212e3          	bne	tp,t0,800003e0 <test_20+0x4>
    80000400:	08f00e93          	li	t4,143
    80000404:	01400193          	li	gp,20
    80000408:	17d71c63          	bne	a4,t4,80000580 <fail>

000000008000040c <test_21>:
    8000040c:	00000213          	li	tp,0
    80000410:	00b0011b          	addiw	sp,zero,11
    80000414:	02011113          	slli	sp,sp,0x20
    80000418:	0070009b          	addiw	ra,zero,7
    8000041c:	02109093          	slli	ra,ra,0x21
    80000420:	00000013          	nop
    80000424:	0220a733          	mulhsu	a4,ra,sp
    80000428:	00120213          	addi	tp,tp,1 # 1 <_start-0x7fffffff>
    8000042c:	00200293          	li	t0,2
    80000430:	fe5210e3          	bne	tp,t0,80000410 <test_21+0x4>
    80000434:	09a00e93          	li	t4,154
    80000438:	01500193          	li	gp,21
    8000043c:	15d71263          	bne	a4,t4,80000580 <fail>

0000000080000440 <test_22>:
    80000440:	00000213          	li	tp,0
    80000444:	00b0011b          	addiw	sp,zero,11
    80000448:	02011113          	slli	sp,sp,0x20
    8000044c:	00f0009b          	addiw	ra,zero,15
    80000450:	02009093          	slli	ra,ra,0x20
    80000454:	00000013          	nop
    80000458:	00000013          	nop
    8000045c:	0220a733          	mulhsu	a4,ra,sp
    80000460:	00120213          	addi	tp,tp,1 # 1 <_start-0x7fffffff>
    80000464:	00200293          	li	t0,2
    80000468:	fc521ee3          	bne	tp,t0,80000444 <test_22+0x4>
    8000046c:	0a500e93          	li	t4,165
    80000470:	01600193          	li	gp,22
    80000474:	11d71663          	bne	a4,t4,80000580 <fail>

0000000080000478 <test_23>:
    80000478:	00000213          	li	tp,0
    8000047c:	00b0011b          	addiw	sp,zero,11
    80000480:	02011113          	slli	sp,sp,0x20
    80000484:	00000013          	nop
    80000488:	00d0009b          	addiw	ra,zero,13
    8000048c:	02009093          	slli	ra,ra,0x20
    80000490:	0220a733          	mulhsu	a4,ra,sp
    80000494:	00120213          	addi	tp,tp,1 # 1 <_start-0x7fffffff>
    80000498:	00200293          	li	t0,2
    8000049c:	fe5210e3          	bne	tp,t0,8000047c <test_23+0x4>
    800004a0:	08f00e93          	li	t4,143
    800004a4:	01700193          	li	gp,23
    800004a8:	0dd71c63          	bne	a4,t4,80000580 <fail>

00000000800004ac <test_24>:
    800004ac:	00000213          	li	tp,0
    800004b0:	00b0011b          	addiw	sp,zero,11
    800004b4:	02011113          	slli	sp,sp,0x20
    800004b8:	00000013          	nop
    800004bc:	0070009b          	addiw	ra,zero,7
    800004c0:	02109093          	slli	ra,ra,0x21
    800004c4:	00000013          	nop
    800004c8:	0220a733          	mulhsu	a4,ra,sp
    800004cc:	00120213          	addi	tp,tp,1 # 1 <_start-0x7fffffff>
    800004d0:	00200293          	li	t0,2
    800004d4:	fc521ee3          	bne	tp,t0,800004b0 <test_24+0x4>
    800004d8:	09a00e93          	li	t4,154
    800004dc:	01800193          	li	gp,24
    800004e0:	0bd71063          	bne	a4,t4,80000580 <fail>

00000000800004e4 <test_25>:
    800004e4:	00000213          	li	tp,0
    800004e8:	00b0011b          	addiw	sp,zero,11
    800004ec:	02011113          	slli	sp,sp,0x20
    800004f0:	00000013          	nop
    800004f4:	00000013          	nop
    800004f8:	00f0009b          	addiw	ra,zero,15
    800004fc:	02009093          	slli	ra,ra,0x20
    80000500:	0220a733          	mulhsu	a4,ra,sp
    80000504:	00120213          	addi	tp,tp,1 # 1 <_start-0x7fffffff>
    80000508:	00200293          	li	t0,2
    8000050c:	fc521ee3          	bne	tp,t0,800004e8 <test_25+0x4>
    80000510:	0a500e93          	li	t4,165
    80000514:	01900193          	li	gp,25
    80000518:	07d71463          	bne	a4,t4,80000580 <fail>

000000008000051c <test_26>:
    8000051c:	01f0009b          	addiw	ra,zero,31
    80000520:	02009093          	slli	ra,ra,0x20
    80000524:	02102133          	mulhsu	sp,zero,ra
    80000528:	00000e93          	li	t4,0
    8000052c:	01a00193          	li	gp,26
    80000530:	05d11863          	bne	sp,t4,80000580 <fail>

0000000080000534 <test_27>:
    80000534:	0010009b          	addiw	ra,zero,1
    80000538:	02509093          	slli	ra,ra,0x25
    8000053c:	0200a133          	mulhsu	sp,ra,zero
    80000540:	00000e93          	li	t4,0
    80000544:	01b00193          	li	gp,27
    80000548:	03d11c63          	bne	sp,t4,80000580 <fail>

000000008000054c <test_28>:
    8000054c:	020020b3          	mulhsu	ra,zero,zero
    80000550:	00000e93          	li	t4,0
    80000554:	01c00193          	li	gp,28
    80000558:	03d09463          	bne	ra,t4,80000580 <fail>

000000008000055c <test_29>:
    8000055c:	0210009b          	addiw	ra,zero,33
    80000560:	02009093          	slli	ra,ra,0x20
    80000564:	0110011b          	addiw	sp,zero,17
    80000568:	02111113          	slli	sp,sp,0x21
    8000056c:	0220a033          	mulhsu	zero,ra,sp
    80000570:	00000e93          	li	t4,0
    80000574:	01d00193          	li	gp,29
    80000578:	01d01463          	bne	zero,t4,80000580 <fail>
    8000057c:	02301063          	bne	zero,gp,8000059c <pass>

0000000080000580 <fail>:
    80000580:	0ff0000f          	fence
    80000584:	00018063          	beqz	gp,80000584 <fail+0x4>
    80000588:	00119193          	slli	gp,gp,0x1
    8000058c:	0011e193          	ori	gp,gp,1
    80000590:	05d00893          	li	a7,93
    80000594:	00018513          	mv	a0,gp
    80000598:	00000073          	ecall

000000008000059c <pass>:
    8000059c:	0ff0000f          	fence
    800005a0:	00100193          	li	gp,1
    800005a4:	05d00893          	li	a7,93
    800005a8:	00000513          	li	a0,0
    800005ac:	00000073          	ecall
    800005b0:	c0001073          	unimp
    800005b4:	0000                	unimp
    800005b6:	0000                	unimp
    800005b8:	0000                	unimp
    800005ba:	0000                	unimp
    800005bc:	0000                	unimp
    800005be:	0000                	unimp
    800005c0:	0000                	unimp
    800005c2:	0000                	unimp
