
rv64um-p-mul:     file format elf64-littleriscv


Disassembly of section .text.init:

0000000080000000 <_start>:
    80000000:	04c0006f          	j	8000004c <reset_vector>

0000000080000004 <trap_vector>:
    80000004:	34202f73          	csrr	t5,mcause
    80000008:	00800f93          	li	t6,8
    8000000c:	03ff0a63          	beq	t5,t6,80000040 <write_tohost>
    80000010:	00900f93          	li	t6,9
    80000014:	03ff0663          	beq	t5,t6,80000040 <write_tohost>
    80000018:	00b00f93          	li	t6,11
    8000001c:	03ff0263          	beq	t5,t6,80000040 <write_tohost>
    80000020:	80000f17          	auipc	t5,0x80000
    80000024:	fe0f0f13          	addi	t5,t5,-32 # 0 <_start-0x80000000>
    80000028:	000f0463          	beqz	t5,80000030 <trap_vector+0x2c>
    8000002c:	000f0067          	jr	t5
    80000030:	34202f73          	csrr	t5,mcause
    80000034:	000f5463          	bgez	t5,8000003c <handle_exception>
    80000038:	0040006f          	j	8000003c <handle_exception>

000000008000003c <handle_exception>:
    8000003c:	5391e193          	ori	gp,gp,1337

0000000080000040 <write_tohost>:
    80000040:	00001f17          	auipc	t5,0x1
    80000044:	fc3f2023          	sw	gp,-64(t5) # 80001000 <tohost>
    80000048:	ff9ff06f          	j	80000040 <write_tohost>

000000008000004c <reset_vector>:
    8000004c:	f1402573          	csrr	a0,mhartid
    80000050:	00051063          	bnez	a0,80000050 <reset_vector+0x4>
    80000054:	00000297          	auipc	t0,0x0
    80000058:	01028293          	addi	t0,t0,16 # 80000064 <reset_vector+0x18>
    8000005c:	30529073          	csrw	mtvec,t0
    80000060:	18005073          	csrwi	satp,0
    80000064:	00000297          	auipc	t0,0x0
    80000068:	02428293          	addi	t0,t0,36 # 80000088 <reset_vector+0x3c>
    8000006c:	30529073          	csrw	mtvec,t0
    80000070:	0010029b          	addiw	t0,zero,1
    80000074:	03529293          	slli	t0,t0,0x35
    80000078:	fff28293          	addi	t0,t0,-1
    8000007c:	3b029073          	csrw	pmpaddr0,t0
    80000080:	01f00293          	li	t0,31
    80000084:	3a029073          	csrw	pmpcfg0,t0
    80000088:	00000297          	auipc	t0,0x0
    8000008c:	01828293          	addi	t0,t0,24 # 800000a0 <reset_vector+0x54>
    80000090:	30529073          	csrw	mtvec,t0
    80000094:	30205073          	csrwi	medeleg,0
    80000098:	30305073          	csrwi	mideleg,0
    8000009c:	30405073          	csrwi	mie,0
    800000a0:	00000193          	li	gp,0
    800000a4:	00000297          	auipc	t0,0x0
    800000a8:	f6028293          	addi	t0,t0,-160 # 80000004 <trap_vector>
    800000ac:	30529073          	csrw	mtvec,t0
    800000b0:	00100513          	li	a0,1
    800000b4:	01f51513          	slli	a0,a0,0x1f
    800000b8:	00055c63          	bgez	a0,800000d0 <reset_vector+0x84>
    800000bc:	0ff0000f          	fence
    800000c0:	00100193          	li	gp,1
    800000c4:	05d00893          	li	a7,93
    800000c8:	00000513          	li	a0,0
    800000cc:	00000073          	ecall
    800000d0:	80000297          	auipc	t0,0x80000
    800000d4:	f3028293          	addi	t0,t0,-208 # 0 <_start-0x80000000>
    800000d8:	00028e63          	beqz	t0,800000f4 <reset_vector+0xa8>
    800000dc:	10529073          	csrw	stvec,t0
    800000e0:	0000b2b7          	lui	t0,0xb
    800000e4:	1092829b          	addiw	t0,t0,265
    800000e8:	30229073          	csrw	medeleg,t0
    800000ec:	30202373          	csrr	t1,medeleg
    800000f0:	f46296e3          	bne	t0,t1,8000003c <handle_exception>
    800000f4:	30005073          	csrwi	mstatus,0
    800000f8:	00000297          	auipc	t0,0x0
    800000fc:	01428293          	addi	t0,t0,20 # 8000010c <test_32>
    80000100:	34129073          	csrw	mepc,t0
    80000104:	f1402573          	csrr	a0,mhartid
    80000108:	30200073          	mret

000000008000010c <test_32>:
    8000010c:	000080b7          	lui	ra,0x8
    80000110:	e000809b          	addiw	ra,ra,-512
    80000114:	06db7137          	lui	sp,0x6db7
    80000118:	db71011b          	addiw	sp,sp,-585
    8000011c:	00c11113          	slli	sp,sp,0xc
    80000120:	db710113          	addi	sp,sp,-585 # 6db6db7 <_start-0x79249249>
    80000124:	00c11113          	slli	sp,sp,0xc
    80000128:	db710113          	addi	sp,sp,-585
    8000012c:	00c11113          	slli	sp,sp,0xc
    80000130:	db710113          	addi	sp,sp,-585
    80000134:	02208733          	mul	a4,ra,sp
    80000138:	00001eb7          	lui	t4,0x1
    8000013c:	200e8e9b          	addiw	t4,t4,512
    80000140:	02000193          	li	gp,32
    80000144:	49d71a63          	bne	a4,t4,800005d8 <fail>

0000000080000148 <test_33>:
    80000148:	000080b7          	lui	ra,0x8
    8000014c:	fc00809b          	addiw	ra,ra,-64
    80000150:	06db7137          	lui	sp,0x6db7
    80000154:	db71011b          	addiw	sp,sp,-585
    80000158:	00c11113          	slli	sp,sp,0xc
    8000015c:	db710113          	addi	sp,sp,-585 # 6db6db7 <_start-0x79249249>
    80000160:	00c11113          	slli	sp,sp,0xc
    80000164:	db710113          	addi	sp,sp,-585
    80000168:	00c11113          	slli	sp,sp,0xc
    8000016c:	db710113          	addi	sp,sp,-585
    80000170:	02208733          	mul	a4,ra,sp
    80000174:	00001eb7          	lui	t4,0x1
    80000178:	240e8e9b          	addiw	t4,t4,576
    8000017c:	02100193          	li	gp,33
    80000180:	45d71c63          	bne	a4,t4,800005d8 <fail>

0000000080000184 <test_2>:
    80000184:	00000093          	li	ra,0
    80000188:	00000113          	li	sp,0
    8000018c:	02208733          	mul	a4,ra,sp
    80000190:	00000e93          	li	t4,0
    80000194:	00200193          	li	gp,2
    80000198:	45d71063          	bne	a4,t4,800005d8 <fail>

000000008000019c <test_3>:
    8000019c:	00100093          	li	ra,1
    800001a0:	00100113          	li	sp,1
    800001a4:	02208733          	mul	a4,ra,sp
    800001a8:	00100e93          	li	t4,1
    800001ac:	00300193          	li	gp,3
    800001b0:	43d71463          	bne	a4,t4,800005d8 <fail>

00000000800001b4 <test_4>:
    800001b4:	00300093          	li	ra,3
    800001b8:	00700113          	li	sp,7
    800001bc:	02208733          	mul	a4,ra,sp
    800001c0:	01500e93          	li	t4,21
    800001c4:	00400193          	li	gp,4
    800001c8:	41d71863          	bne	a4,t4,800005d8 <fail>

00000000800001cc <test_5>:
    800001cc:	00000093          	li	ra,0
    800001d0:	ffff8137          	lui	sp,0xffff8
    800001d4:	02208733          	mul	a4,ra,sp
    800001d8:	00000e93          	li	t4,0
    800001dc:	00500193          	li	gp,5
    800001e0:	3fd71c63          	bne	a4,t4,800005d8 <fail>

00000000800001e4 <test_6>:
    800001e4:	800000b7          	lui	ra,0x80000
    800001e8:	00000113          	li	sp,0
    800001ec:	02208733          	mul	a4,ra,sp
    800001f0:	00000e93          	li	t4,0
    800001f4:	00600193          	li	gp,6
    800001f8:	3fd71063          	bne	a4,t4,800005d8 <fail>

00000000800001fc <test_7>:
    800001fc:	800000b7          	lui	ra,0x80000
    80000200:	ffff8137          	lui	sp,0xffff8
    80000204:	02208733          	mul	a4,ra,sp
    80000208:	00100e9b          	addiw	t4,zero,1
    8000020c:	02ee9e93          	slli	t4,t4,0x2e
    80000210:	00700193          	li	gp,7
    80000214:	3dd71263          	bne	a4,t4,800005d8 <fail>

0000000080000218 <test_30>:
    80000218:	faaab0b7          	lui	ra,0xfaaab
    8000021c:	aab0809b          	addiw	ra,ra,-1365
    80000220:	00c09093          	slli	ra,ra,0xc
    80000224:	aab08093          	addi	ra,ra,-1365 # fffffffffaaaaaab <_end+0xffffffff7aaa8aab>
    80000228:	00c09093          	slli	ra,ra,0xc
    8000022c:	aab08093          	addi	ra,ra,-1365
    80000230:	00c09093          	slli	ra,ra,0xc
    80000234:	aab08093          	addi	ra,ra,-1365
    80000238:	00030137          	lui	sp,0x30
    8000023c:	e7d1011b          	addiw	sp,sp,-387
    80000240:	02208733          	mul	a4,ra,sp
    80000244:	00010eb7          	lui	t4,0x10
    80000248:	f7fe8e9b          	addiw	t4,t4,-129
    8000024c:	01e00193          	li	gp,30
    80000250:	39d71463          	bne	a4,t4,800005d8 <fail>

0000000080000254 <test_31>:
    80000254:	000300b7          	lui	ra,0x30
    80000258:	e7d0809b          	addiw	ra,ra,-387
    8000025c:	faaab137          	lui	sp,0xfaaab
    80000260:	aab1011b          	addiw	sp,sp,-1365
    80000264:	00c11113          	slli	sp,sp,0xc
    80000268:	aab10113          	addi	sp,sp,-1365 # fffffffffaaaaaab <_end+0xffffffff7aaa8aab>
    8000026c:	00c11113          	slli	sp,sp,0xc
    80000270:	aab10113          	addi	sp,sp,-1365
    80000274:	00c11113          	slli	sp,sp,0xc
    80000278:	aab10113          	addi	sp,sp,-1365
    8000027c:	02208733          	mul	a4,ra,sp
    80000280:	00010eb7          	lui	t4,0x10
    80000284:	f7fe8e9b          	addiw	t4,t4,-129
    80000288:	01f00193          	li	gp,31
    8000028c:	35d71663          	bne	a4,t4,800005d8 <fail>

0000000080000290 <test_8>:
    80000290:	00d00093          	li	ra,13
    80000294:	00b00113          	li	sp,11
    80000298:	022080b3          	mul	ra,ra,sp
    8000029c:	08f00e93          	li	t4,143
    800002a0:	00800193          	li	gp,8
    800002a4:	33d09a63          	bne	ra,t4,800005d8 <fail>

00000000800002a8 <test_9>:
    800002a8:	00e00093          	li	ra,14
    800002ac:	00b00113          	li	sp,11
    800002b0:	02208133          	mul	sp,ra,sp
    800002b4:	09a00e93          	li	t4,154
    800002b8:	00900193          	li	gp,9
    800002bc:	31d11e63          	bne	sp,t4,800005d8 <fail>

00000000800002c0 <test_10>:
    800002c0:	00d00093          	li	ra,13
    800002c4:	021080b3          	mul	ra,ra,ra
    800002c8:	0a900e93          	li	t4,169
    800002cc:	00a00193          	li	gp,10
    800002d0:	31d09463          	bne	ra,t4,800005d8 <fail>

00000000800002d4 <test_11>:
    800002d4:	00000213          	li	tp,0
    800002d8:	00d00093          	li	ra,13
    800002dc:	00b00113          	li	sp,11
    800002e0:	02208733          	mul	a4,ra,sp
    800002e4:	00070313          	mv	t1,a4
    800002e8:	00120213          	addi	tp,tp,1 # 1 <_start-0x7fffffff>
    800002ec:	00200293          	li	t0,2
    800002f0:	fe5214e3          	bne	tp,t0,800002d8 <test_11+0x4>
    800002f4:	08f00e93          	li	t4,143
    800002f8:	00b00193          	li	gp,11
    800002fc:	2dd31e63          	bne	t1,t4,800005d8 <fail>

0000000080000300 <test_12>:
    80000300:	00000213          	li	tp,0
    80000304:	00e00093          	li	ra,14
    80000308:	00b00113          	li	sp,11
    8000030c:	02208733          	mul	a4,ra,sp
    80000310:	00000013          	nop
    80000314:	00070313          	mv	t1,a4
    80000318:	00120213          	addi	tp,tp,1 # 1 <_start-0x7fffffff>
    8000031c:	00200293          	li	t0,2
    80000320:	fe5212e3          	bne	tp,t0,80000304 <test_12+0x4>
    80000324:	09a00e93          	li	t4,154
    80000328:	00c00193          	li	gp,12
    8000032c:	2bd31663          	bne	t1,t4,800005d8 <fail>

0000000080000330 <test_13>:
    80000330:	00000213          	li	tp,0
    80000334:	00f00093          	li	ra,15
    80000338:	00b00113          	li	sp,11
    8000033c:	02208733          	mul	a4,ra,sp
    80000340:	00000013          	nop
    80000344:	00000013          	nop
    80000348:	00070313          	mv	t1,a4
    8000034c:	00120213          	addi	tp,tp,1 # 1 <_start-0x7fffffff>
    80000350:	00200293          	li	t0,2
    80000354:	fe5210e3          	bne	tp,t0,80000334 <test_13+0x4>
    80000358:	0a500e93          	li	t4,165
    8000035c:	00d00193          	li	gp,13
    80000360:	27d31c63          	bne	t1,t4,800005d8 <fail>

0000000080000364 <test_14>:
    80000364:	00000213          	li	tp,0
    80000368:	00d00093          	li	ra,13
    8000036c:	00b00113          	li	sp,11
    80000370:	02208733          	mul	a4,ra,sp
    80000374:	00120213          	addi	tp,tp,1 # 1 <_start-0x7fffffff>
    80000378:	00200293          	li	t0,2
    8000037c:	fe5216e3          	bne	tp,t0,80000368 <test_14+0x4>
    80000380:	08f00e93          	li	t4,143
    80000384:	00e00193          	li	gp,14
    80000388:	25d71863          	bne	a4,t4,800005d8 <fail>

000000008000038c <test_15>:
    8000038c:	00000213          	li	tp,0
    80000390:	00e00093          	li	ra,14
    80000394:	00b00113          	li	sp,11
    80000398:	00000013          	nop
    8000039c:	02208733          	mul	a4,ra,sp
    800003a0:	00120213          	addi	tp,tp,1 # 1 <_start-0x7fffffff>
    800003a4:	00200293          	li	t0,2
    800003a8:	fe5214e3          	bne	tp,t0,80000390 <test_15+0x4>
    800003ac:	09a00e93          	li	t4,154
    800003b0:	00f00193          	li	gp,15
    800003b4:	23d71263          	bne	a4,t4,800005d8 <fail>

00000000800003b8 <test_16>:
    800003b8:	00000213          	li	tp,0
    800003bc:	00f00093          	li	ra,15
    800003c0:	00b00113          	li	sp,11
    800003c4:	00000013          	nop
    800003c8:	00000013          	nop
    800003cc:	02208733          	mul	a4,ra,sp
    800003d0:	00120213          	addi	tp,tp,1 # 1 <_start-0x7fffffff>
    800003d4:	00200293          	li	t0,2
    800003d8:	fe5212e3          	bne	tp,t0,800003bc <test_16+0x4>
    800003dc:	0a500e93          	li	t4,165
    800003e0:	01000193          	li	gp,16
    800003e4:	1fd71a63          	bne	a4,t4,800005d8 <fail>

00000000800003e8 <test_17>:
    800003e8:	00000213          	li	tp,0
    800003ec:	00d00093          	li	ra,13
    800003f0:	00000013          	nop
    800003f4:	00b00113          	li	sp,11
    800003f8:	02208733          	mul	a4,ra,sp
    800003fc:	00120213          	addi	tp,tp,1 # 1 <_start-0x7fffffff>
    80000400:	00200293          	li	t0,2
    80000404:	fe5214e3          	bne	tp,t0,800003ec <test_17+0x4>
    80000408:	08f00e93          	li	t4,143
    8000040c:	01100193          	li	gp,17
    80000410:	1dd71463          	bne	a4,t4,800005d8 <fail>

0000000080000414 <test_18>:
    80000414:	00000213          	li	tp,0
    80000418:	00e00093          	li	ra,14
    8000041c:	00000013          	nop
    80000420:	00b00113          	li	sp,11
    80000424:	00000013          	nop
    80000428:	02208733          	mul	a4,ra,sp
    8000042c:	00120213          	addi	tp,tp,1 # 1 <_start-0x7fffffff>
    80000430:	00200293          	li	t0,2
    80000434:	fe5212e3          	bne	tp,t0,80000418 <test_18+0x4>
    80000438:	09a00e93          	li	t4,154
    8000043c:	01200193          	li	gp,18
    80000440:	19d71c63          	bne	a4,t4,800005d8 <fail>

0000000080000444 <test_19>:
    80000444:	00000213          	li	tp,0
    80000448:	00f00093          	li	ra,15
    8000044c:	00000013          	nop
    80000450:	00000013          	nop
    80000454:	00b00113          	li	sp,11
    80000458:	02208733          	mul	a4,ra,sp
    8000045c:	00120213          	addi	tp,tp,1 # 1 <_start-0x7fffffff>
    80000460:	00200293          	li	t0,2
    80000464:	fe5212e3          	bne	tp,t0,80000448 <test_19+0x4>
    80000468:	0a500e93          	li	t4,165
    8000046c:	01300193          	li	gp,19
    80000470:	17d71463          	bne	a4,t4,800005d8 <fail>

0000000080000474 <test_20>:
    80000474:	00000213          	li	tp,0
    80000478:	00b00113          	li	sp,11
    8000047c:	00d00093          	li	ra,13
    80000480:	02208733          	mul	a4,ra,sp
    80000484:	00120213          	addi	tp,tp,1 # 1 <_start-0x7fffffff>
    80000488:	00200293          	li	t0,2
    8000048c:	fe5216e3          	bne	tp,t0,80000478 <test_20+0x4>
    80000490:	08f00e93          	li	t4,143
    80000494:	01400193          	li	gp,20
    80000498:	15d71063          	bne	a4,t4,800005d8 <fail>

000000008000049c <test_21>:
    8000049c:	00000213          	li	tp,0
    800004a0:	00b00113          	li	sp,11
    800004a4:	00e00093          	li	ra,14
    800004a8:	00000013          	nop
    800004ac:	02208733          	mul	a4,ra,sp
    800004b0:	00120213          	addi	tp,tp,1 # 1 <_start-0x7fffffff>
    800004b4:	00200293          	li	t0,2
    800004b8:	fe5214e3          	bne	tp,t0,800004a0 <test_21+0x4>
    800004bc:	09a00e93          	li	t4,154
    800004c0:	01500193          	li	gp,21
    800004c4:	11d71a63          	bne	a4,t4,800005d8 <fail>

00000000800004c8 <test_22>:
    800004c8:	00000213          	li	tp,0
    800004cc:	00b00113          	li	sp,11
    800004d0:	00f00093          	li	ra,15
    800004d4:	00000013          	nop
    800004d8:	00000013          	nop
    800004dc:	02208733          	mul	a4,ra,sp
    800004e0:	00120213          	addi	tp,tp,1 # 1 <_start-0x7fffffff>
    800004e4:	00200293          	li	t0,2
    800004e8:	fe5212e3          	bne	tp,t0,800004cc <test_22+0x4>
    800004ec:	0a500e93          	li	t4,165
    800004f0:	01600193          	li	gp,22
    800004f4:	0fd71263          	bne	a4,t4,800005d8 <fail>

00000000800004f8 <test_23>:
    800004f8:	00000213          	li	tp,0
    800004fc:	00b00113          	li	sp,11
    80000500:	00000013          	nop
    80000504:	00d00093          	li	ra,13
    80000508:	02208733          	mul	a4,ra,sp
    8000050c:	00120213          	addi	tp,tp,1 # 1 <_start-0x7fffffff>
    80000510:	00200293          	li	t0,2
    80000514:	fe5214e3          	bne	tp,t0,800004fc <test_23+0x4>
    80000518:	08f00e93          	li	t4,143
    8000051c:	01700193          	li	gp,23
    80000520:	0bd71c63          	bne	a4,t4,800005d8 <fail>

0000000080000524 <test_24>:
    80000524:	00000213          	li	tp,0
    80000528:	00b00113          	li	sp,11
    8000052c:	00000013          	nop
    80000530:	00e00093          	li	ra,14
    80000534:	00000013          	nop
    80000538:	02208733          	mul	a4,ra,sp
    8000053c:	00120213          	addi	tp,tp,1 # 1 <_start-0x7fffffff>
    80000540:	00200293          	li	t0,2
    80000544:	fe5212e3          	bne	tp,t0,80000528 <test_24+0x4>
    80000548:	09a00e93          	li	t4,154
    8000054c:	01800193          	li	gp,24
    80000550:	09d71463          	bne	a4,t4,800005d8 <fail>

0000000080000554 <test_25>:
    80000554:	00000213          	li	tp,0
    80000558:	00b00113          	li	sp,11
    8000055c:	00000013          	nop
    80000560:	00000013          	nop
    80000564:	00f00093          	li	ra,15
    80000568:	02208733          	mul	a4,ra,sp
    8000056c:	00120213          	addi	tp,tp,1 # 1 <_start-0x7fffffff>
    80000570:	00200293          	li	t0,2
    80000574:	fe5212e3          	bne	tp,t0,80000558 <test_25+0x4>
    80000578:	0a500e93          	li	t4,165
    8000057c:	01900193          	li	gp,25
    80000580:	05d71c63          	bne	a4,t4,800005d8 <fail>

0000000080000584 <test_26>:
    80000584:	01f00093          	li	ra,31
    80000588:	02100133          	mul	sp,zero,ra
    8000058c:	00000e93          	li	t4,0
    80000590:	01a00193          	li	gp,26
    80000594:	05d11263          	bne	sp,t4,800005d8 <fail>

0000000080000598 <test_27>:
    80000598:	02000093          	li	ra,32
    8000059c:	02008133          	mul	sp,ra,zero
    800005a0:	00000e93          	li	t4,0
    800005a4:	01b00193          	li	gp,27
    800005a8:	03d11863          	bne	sp,t4,800005d8 <fail>

00000000800005ac <test_28>:
    800005ac:	020000b3          	mul	ra,zero,zero
    800005b0:	00000e93          	li	t4,0
    800005b4:	01c00193          	li	gp,28
    800005b8:	03d09063          	bne	ra,t4,800005d8 <fail>

00000000800005bc <test_29>:
    800005bc:	02100093          	li	ra,33
    800005c0:	02200113          	li	sp,34
    800005c4:	02208033          	mul	zero,ra,sp
    800005c8:	00000e93          	li	t4,0
    800005cc:	01d00193          	li	gp,29
    800005d0:	01d01463          	bne	zero,t4,800005d8 <fail>
    800005d4:	02301063          	bne	zero,gp,800005f4 <pass>

00000000800005d8 <fail>:
    800005d8:	0ff0000f          	fence
    800005dc:	00018063          	beqz	gp,800005dc <fail+0x4>
    800005e0:	00119193          	slli	gp,gp,0x1
    800005e4:	0011e193          	ori	gp,gp,1
    800005e8:	05d00893          	li	a7,93
    800005ec:	00018513          	mv	a0,gp
    800005f0:	00000073          	ecall

00000000800005f4 <pass>:
    800005f4:	0ff0000f          	fence
    800005f8:	00100193          	li	gp,1
    800005fc:	05d00893          	li	a7,93
    80000600:	00000513          	li	a0,0
    80000604:	00000073          	ecall
    80000608:	c0001073          	unimp
    8000060c:	0000                	unimp
    8000060e:	0000                	unimp
    80000610:	0000                	unimp
    80000612:	0000                	unimp
    80000614:	0000                	unimp
    80000616:	0000                	unimp
    80000618:	0000                	unimp
    8000061a:	0000                	unimp
    8000061c:	0000                	unimp
    8000061e:	0000                	unimp
    80000620:	0000                	unimp
    80000622:	0000                	unimp
    80000624:	0000                	unimp
    80000626:	0000                	unimp
    80000628:	0000                	unimp
    8000062a:	0000                	unimp
    8000062c:	0000                	unimp
    8000062e:	0000                	unimp
    80000630:	0000                	unimp
    80000632:	0000                	unimp
    80000634:	0000                	unimp
    80000636:	0000                	unimp
    80000638:	0000                	unimp
    8000063a:	0000                	unimp
    8000063c:	0000                	unimp
    8000063e:	0000                	unimp
    80000640:	0000                	unimp
    80000642:	0000                	unimp
