
rv64ui-p-srlw:     file format elf64-littleriscv


Disassembly of section .text.init:

0000000080000000 <_start>:
    80000000:	04c0006f          	j	8000004c <reset_vector>

0000000080000004 <trap_vector>:
    80000004:	34202f73          	csrr	t5,mcause
    80000008:	00800f93          	li	t6,8
    8000000c:	03ff0a63          	beq	t5,t6,80000040 <write_tohost>
    80000010:	00900f93          	li	t6,9
    80000014:	03ff0663          	beq	t5,t6,80000040 <write_tohost>
    80000018:	00b00f93          	li	t6,11
    8000001c:	03ff0263          	beq	t5,t6,80000040 <write_tohost>
    80000020:	80000f17          	auipc	t5,0x80000
    80000024:	fe0f0f13          	addi	t5,t5,-32 # 0 <_start-0x80000000>
    80000028:	000f0463          	beqz	t5,80000030 <trap_vector+0x2c>
    8000002c:	000f0067          	jr	t5
    80000030:	34202f73          	csrr	t5,mcause
    80000034:	000f5463          	bgez	t5,8000003c <handle_exception>
    80000038:	0040006f          	j	8000003c <handle_exception>

000000008000003c <handle_exception>:
    8000003c:	5391e193          	ori	gp,gp,1337

0000000080000040 <write_tohost>:
    80000040:	00001f17          	auipc	t5,0x1
    80000044:	fc3f2023          	sw	gp,-64(t5) # 80001000 <tohost>
    80000048:	ff9ff06f          	j	80000040 <write_tohost>

000000008000004c <reset_vector>:
    8000004c:	f1402573          	csrr	a0,mhartid
    80000050:	00051063          	bnez	a0,80000050 <reset_vector+0x4>
    80000054:	00000297          	auipc	t0,0x0
    80000058:	01028293          	addi	t0,t0,16 # 80000064 <reset_vector+0x18>
    8000005c:	30529073          	csrw	mtvec,t0
    80000060:	18005073          	csrwi	satp,0
    80000064:	00000297          	auipc	t0,0x0
    80000068:	02428293          	addi	t0,t0,36 # 80000088 <reset_vector+0x3c>
    8000006c:	30529073          	csrw	mtvec,t0
    80000070:	0010029b          	addiw	t0,zero,1
    80000074:	03529293          	slli	t0,t0,0x35
    80000078:	fff28293          	addi	t0,t0,-1
    8000007c:	3b029073          	csrw	pmpaddr0,t0
    80000080:	01f00293          	li	t0,31
    80000084:	3a029073          	csrw	pmpcfg0,t0
    80000088:	00000297          	auipc	t0,0x0
    8000008c:	01828293          	addi	t0,t0,24 # 800000a0 <reset_vector+0x54>
    80000090:	30529073          	csrw	mtvec,t0
    80000094:	30205073          	csrwi	medeleg,0
    80000098:	30305073          	csrwi	mideleg,0
    8000009c:	30405073          	csrwi	mie,0
    800000a0:	00000193          	li	gp,0
    800000a4:	00000297          	auipc	t0,0x0
    800000a8:	f6028293          	addi	t0,t0,-160 # 80000004 <trap_vector>
    800000ac:	30529073          	csrw	mtvec,t0
    800000b0:	00100513          	li	a0,1
    800000b4:	01f51513          	slli	a0,a0,0x1f
    800000b8:	00055c63          	bgez	a0,800000d0 <reset_vector+0x84>
    800000bc:	0ff0000f          	fence
    800000c0:	00100193          	li	gp,1
    800000c4:	05d00893          	li	a7,93
    800000c8:	00000513          	li	a0,0
    800000cc:	00000073          	ecall
    800000d0:	80000297          	auipc	t0,0x80000
    800000d4:	f3028293          	addi	t0,t0,-208 # 0 <_start-0x80000000>
    800000d8:	00028e63          	beqz	t0,800000f4 <reset_vector+0xa8>
    800000dc:	10529073          	csrw	stvec,t0
    800000e0:	0000b2b7          	lui	t0,0xb
    800000e4:	1092829b          	addiw	t0,t0,265
    800000e8:	30229073          	csrw	medeleg,t0
    800000ec:	30202373          	csrr	t1,medeleg
    800000f0:	f46296e3          	bne	t0,t1,8000003c <handle_exception>
    800000f4:	30005073          	csrwi	mstatus,0
    800000f8:	00000297          	auipc	t0,0x0
    800000fc:	01428293          	addi	t0,t0,20 # 8000010c <test_2>
    80000100:	34129073          	csrw	mepc,t0
    80000104:	f1402573          	csrr	a0,mhartid
    80000108:	30200073          	mret

000000008000010c <test_2>:
    8000010c:	800000b7          	lui	ra,0x80000
    80000110:	00000113          	li	sp,0
    80000114:	0020d73b          	srlw	a4,ra,sp
    80000118:	80000eb7          	lui	t4,0x80000
    8000011c:	00200193          	li	gp,2
    80000120:	61d71863          	bne	a4,t4,80000730 <fail>

0000000080000124 <test_3>:
    80000124:	800000b7          	lui	ra,0x80000
    80000128:	00100113          	li	sp,1
    8000012c:	0020d73b          	srlw	a4,ra,sp
    80000130:	40000eb7          	lui	t4,0x40000
    80000134:	00300193          	li	gp,3
    80000138:	5fd71c63          	bne	a4,t4,80000730 <fail>

000000008000013c <test_4>:
    8000013c:	800000b7          	lui	ra,0x80000
    80000140:	00700113          	li	sp,7
    80000144:	0020d73b          	srlw	a4,ra,sp
    80000148:	01000eb7          	lui	t4,0x1000
    8000014c:	00400193          	li	gp,4
    80000150:	5fd71063          	bne	a4,t4,80000730 <fail>

0000000080000154 <test_5>:
    80000154:	800000b7          	lui	ra,0x80000
    80000158:	00e00113          	li	sp,14
    8000015c:	0020d73b          	srlw	a4,ra,sp
    80000160:	00020eb7          	lui	t4,0x20
    80000164:	00500193          	li	gp,5
    80000168:	5dd71463          	bne	a4,t4,80000730 <fail>

000000008000016c <test_6>:
    8000016c:	800000b7          	lui	ra,0x80000
    80000170:	0010809b          	addiw	ra,ra,1
    80000174:	01f00113          	li	sp,31
    80000178:	0020d73b          	srlw	a4,ra,sp
    8000017c:	00100e93          	li	t4,1
    80000180:	00600193          	li	gp,6
    80000184:	5bd71663          	bne	a4,t4,80000730 <fail>

0000000080000188 <test_7>:
    80000188:	fff00093          	li	ra,-1
    8000018c:	00000113          	li	sp,0
    80000190:	0020d73b          	srlw	a4,ra,sp
    80000194:	fff00e93          	li	t4,-1
    80000198:	00700193          	li	gp,7
    8000019c:	59d71a63          	bne	a4,t4,80000730 <fail>

00000000800001a0 <test_8>:
    800001a0:	fff00093          	li	ra,-1
    800001a4:	00100113          	li	sp,1
    800001a8:	0020d73b          	srlw	a4,ra,sp
    800001ac:	80000eb7          	lui	t4,0x80000
    800001b0:	fffe8e9b          	addiw	t4,t4,-1
    800001b4:	00800193          	li	gp,8
    800001b8:	57d71c63          	bne	a4,t4,80000730 <fail>

00000000800001bc <test_9>:
    800001bc:	fff00093          	li	ra,-1
    800001c0:	00700113          	li	sp,7
    800001c4:	0020d73b          	srlw	a4,ra,sp
    800001c8:	02000eb7          	lui	t4,0x2000
    800001cc:	fffe8e9b          	addiw	t4,t4,-1
    800001d0:	00900193          	li	gp,9
    800001d4:	55d71e63          	bne	a4,t4,80000730 <fail>

00000000800001d8 <test_10>:
    800001d8:	fff00093          	li	ra,-1
    800001dc:	00e00113          	li	sp,14
    800001e0:	0020d73b          	srlw	a4,ra,sp
    800001e4:	00040eb7          	lui	t4,0x40
    800001e8:	fffe8e9b          	addiw	t4,t4,-1
    800001ec:	00a00193          	li	gp,10
    800001f0:	55d71063          	bne	a4,t4,80000730 <fail>

00000000800001f4 <test_11>:
    800001f4:	fff00093          	li	ra,-1
    800001f8:	01f00113          	li	sp,31
    800001fc:	0020d73b          	srlw	a4,ra,sp
    80000200:	00100e93          	li	t4,1
    80000204:	00b00193          	li	gp,11
    80000208:	53d71463          	bne	a4,t4,80000730 <fail>

000000008000020c <test_12>:
    8000020c:	212120b7          	lui	ra,0x21212
    80000210:	1210809b          	addiw	ra,ra,289
    80000214:	00000113          	li	sp,0
    80000218:	0020d73b          	srlw	a4,ra,sp
    8000021c:	21212eb7          	lui	t4,0x21212
    80000220:	121e8e9b          	addiw	t4,t4,289
    80000224:	00c00193          	li	gp,12
    80000228:	51d71463          	bne	a4,t4,80000730 <fail>

000000008000022c <test_13>:
    8000022c:	212120b7          	lui	ra,0x21212
    80000230:	1210809b          	addiw	ra,ra,289
    80000234:	00100113          	li	sp,1
    80000238:	0020d73b          	srlw	a4,ra,sp
    8000023c:	10909eb7          	lui	t4,0x10909
    80000240:	090e8e9b          	addiw	t4,t4,144
    80000244:	00d00193          	li	gp,13
    80000248:	4fd71463          	bne	a4,t4,80000730 <fail>

000000008000024c <test_14>:
    8000024c:	212120b7          	lui	ra,0x21212
    80000250:	1210809b          	addiw	ra,ra,289
    80000254:	00700113          	li	sp,7
    80000258:	0020d73b          	srlw	a4,ra,sp
    8000025c:	00424eb7          	lui	t4,0x424
    80000260:	242e8e9b          	addiw	t4,t4,578
    80000264:	00e00193          	li	gp,14
    80000268:	4dd71463          	bne	a4,t4,80000730 <fail>

000000008000026c <test_15>:
    8000026c:	212120b7          	lui	ra,0x21212
    80000270:	1210809b          	addiw	ra,ra,289
    80000274:	00e00113          	li	sp,14
    80000278:	0020d73b          	srlw	a4,ra,sp
    8000027c:	00008eb7          	lui	t4,0x8
    80000280:	484e8e9b          	addiw	t4,t4,1156
    80000284:	00f00193          	li	gp,15
    80000288:	4bd71463          	bne	a4,t4,80000730 <fail>

000000008000028c <test_16>:
    8000028c:	212120b7          	lui	ra,0x21212
    80000290:	1210809b          	addiw	ra,ra,289
    80000294:	01f00113          	li	sp,31
    80000298:	0020d73b          	srlw	a4,ra,sp
    8000029c:	00000e93          	li	t4,0
    800002a0:	01000193          	li	gp,16
    800002a4:	49d71663          	bne	a4,t4,80000730 <fail>

00000000800002a8 <test_17>:
    800002a8:	212120b7          	lui	ra,0x21212
    800002ac:	1210809b          	addiw	ra,ra,289
    800002b0:	fe000113          	li	sp,-32
    800002b4:	0020d73b          	srlw	a4,ra,sp
    800002b8:	21212eb7          	lui	t4,0x21212
    800002bc:	121e8e9b          	addiw	t4,t4,289
    800002c0:	01100193          	li	gp,17
    800002c4:	47d71663          	bne	a4,t4,80000730 <fail>

00000000800002c8 <test_18>:
    800002c8:	212120b7          	lui	ra,0x21212
    800002cc:	1210809b          	addiw	ra,ra,289
    800002d0:	fe100113          	li	sp,-31
    800002d4:	0020d73b          	srlw	a4,ra,sp
    800002d8:	10909eb7          	lui	t4,0x10909
    800002dc:	090e8e9b          	addiw	t4,t4,144
    800002e0:	01200193          	li	gp,18
    800002e4:	45d71663          	bne	a4,t4,80000730 <fail>

00000000800002e8 <test_19>:
    800002e8:	212120b7          	lui	ra,0x21212
    800002ec:	1210809b          	addiw	ra,ra,289
    800002f0:	fe700113          	li	sp,-25
    800002f4:	0020d73b          	srlw	a4,ra,sp
    800002f8:	00424eb7          	lui	t4,0x424
    800002fc:	242e8e9b          	addiw	t4,t4,578
    80000300:	01300193          	li	gp,19
    80000304:	43d71663          	bne	a4,t4,80000730 <fail>

0000000080000308 <test_20>:
    80000308:	212120b7          	lui	ra,0x21212
    8000030c:	1210809b          	addiw	ra,ra,289
    80000310:	fee00113          	li	sp,-18
    80000314:	0020d73b          	srlw	a4,ra,sp
    80000318:	00008eb7          	lui	t4,0x8
    8000031c:	484e8e9b          	addiw	t4,t4,1156
    80000320:	01400193          	li	gp,20
    80000324:	41d71663          	bne	a4,t4,80000730 <fail>

0000000080000328 <test_21>:
    80000328:	212120b7          	lui	ra,0x21212
    8000032c:	1210809b          	addiw	ra,ra,289
    80000330:	fff00113          	li	sp,-1
    80000334:	0020d73b          	srlw	a4,ra,sp
    80000338:	00000e93          	li	t4,0
    8000033c:	01500193          	li	gp,21
    80000340:	3fd71863          	bne	a4,t4,80000730 <fail>

0000000080000344 <test_44>:
    80000344:	fff120b7          	lui	ra,0xfff12
    80000348:	3450809b          	addiw	ra,ra,837
    8000034c:	00c09093          	slli	ra,ra,0xc
    80000350:	67808093          	addi	ra,ra,1656 # fffffffffff12678 <_end+0xffffffff7ff10678>
    80000354:	00000113          	li	sp,0
    80000358:	0020d73b          	srlw	a4,ra,sp
    8000035c:	12345eb7          	lui	t4,0x12345
    80000360:	678e8e9b          	addiw	t4,t4,1656
    80000364:	02c00193          	li	gp,44
    80000368:	3dd71463          	bne	a4,t4,80000730 <fail>

000000008000036c <test_45>:
    8000036c:	fff120b7          	lui	ra,0xfff12
    80000370:	3450809b          	addiw	ra,ra,837
    80000374:	00c09093          	slli	ra,ra,0xc
    80000378:	67808093          	addi	ra,ra,1656 # fffffffffff12678 <_end+0xffffffff7ff10678>
    8000037c:	00400113          	li	sp,4
    80000380:	0020d73b          	srlw	a4,ra,sp
    80000384:	01234eb7          	lui	t4,0x1234
    80000388:	567e8e9b          	addiw	t4,t4,1383
    8000038c:	02d00193          	li	gp,45
    80000390:	3bd71063          	bne	a4,t4,80000730 <fail>

0000000080000394 <test_46>:
    80000394:	000920b7          	lui	ra,0x92
    80000398:	3450809b          	addiw	ra,ra,837
    8000039c:	00c09093          	slli	ra,ra,0xc
    800003a0:	67808093          	addi	ra,ra,1656 # 92678 <_start-0x7ff6d988>
    800003a4:	00000113          	li	sp,0
    800003a8:	0020d73b          	srlw	a4,ra,sp
    800003ac:	92345eb7          	lui	t4,0x92345
    800003b0:	678e8e9b          	addiw	t4,t4,1656
    800003b4:	02e00193          	li	gp,46
    800003b8:	37d71c63          	bne	a4,t4,80000730 <fail>

00000000800003bc <test_47>:
    800003bc:	000920b7          	lui	ra,0x92
    800003c0:	3450809b          	addiw	ra,ra,837
    800003c4:	00c09093          	slli	ra,ra,0xc
    800003c8:	67808093          	addi	ra,ra,1656 # 92678 <_start-0x7ff6d988>
    800003cc:	00400113          	li	sp,4
    800003d0:	0020d73b          	srlw	a4,ra,sp
    800003d4:	09234eb7          	lui	t4,0x9234
    800003d8:	567e8e9b          	addiw	t4,t4,1383
    800003dc:	02f00193          	li	gp,47
    800003e0:	35d71863          	bne	a4,t4,80000730 <fail>

00000000800003e4 <test_22>:
    800003e4:	800000b7          	lui	ra,0x80000
    800003e8:	00700113          	li	sp,7
    800003ec:	0020d0bb          	srlw	ra,ra,sp
    800003f0:	01000eb7          	lui	t4,0x1000
    800003f4:	01600193          	li	gp,22
    800003f8:	33d09c63          	bne	ra,t4,80000730 <fail>

00000000800003fc <test_23>:
    800003fc:	800000b7          	lui	ra,0x80000
    80000400:	00e00113          	li	sp,14
    80000404:	0020d13b          	srlw	sp,ra,sp
    80000408:	00020eb7          	lui	t4,0x20
    8000040c:	01700193          	li	gp,23
    80000410:	33d11063          	bne	sp,t4,80000730 <fail>

0000000080000414 <test_24>:
    80000414:	00700093          	li	ra,7
    80000418:	0010d0bb          	srlw	ra,ra,ra
    8000041c:	00000e93          	li	t4,0
    80000420:	01800193          	li	gp,24
    80000424:	31d09663          	bne	ra,t4,80000730 <fail>

0000000080000428 <test_25>:
    80000428:	00000213          	li	tp,0
    8000042c:	800000b7          	lui	ra,0x80000
    80000430:	00700113          	li	sp,7
    80000434:	0020d73b          	srlw	a4,ra,sp
    80000438:	00070313          	mv	t1,a4
    8000043c:	00120213          	addi	tp,tp,1 # 1 <_start-0x7fffffff>
    80000440:	00200293          	li	t0,2
    80000444:	fe5214e3          	bne	tp,t0,8000042c <test_25+0x4>
    80000448:	01000eb7          	lui	t4,0x1000
    8000044c:	01900193          	li	gp,25
    80000450:	2fd31063          	bne	t1,t4,80000730 <fail>

0000000080000454 <test_26>:
    80000454:	00000213          	li	tp,0
    80000458:	800000b7          	lui	ra,0x80000
    8000045c:	00e00113          	li	sp,14
    80000460:	0020d73b          	srlw	a4,ra,sp
    80000464:	00000013          	nop
    80000468:	00070313          	mv	t1,a4
    8000046c:	00120213          	addi	tp,tp,1 # 1 <_start-0x7fffffff>
    80000470:	00200293          	li	t0,2
    80000474:	fe5212e3          	bne	tp,t0,80000458 <test_26+0x4>
    80000478:	00020eb7          	lui	t4,0x20
    8000047c:	01a00193          	li	gp,26
    80000480:	2bd31863          	bne	t1,t4,80000730 <fail>

0000000080000484 <test_27>:
    80000484:	00000213          	li	tp,0
    80000488:	800000b7          	lui	ra,0x80000
    8000048c:	01f00113          	li	sp,31
    80000490:	0020d73b          	srlw	a4,ra,sp
    80000494:	00000013          	nop
    80000498:	00000013          	nop
    8000049c:	00070313          	mv	t1,a4
    800004a0:	00120213          	addi	tp,tp,1 # 1 <_start-0x7fffffff>
    800004a4:	00200293          	li	t0,2
    800004a8:	fe5210e3          	bne	tp,t0,80000488 <test_27+0x4>
    800004ac:	00100e93          	li	t4,1
    800004b0:	01b00193          	li	gp,27
    800004b4:	27d31e63          	bne	t1,t4,80000730 <fail>

00000000800004b8 <test_28>:
    800004b8:	00000213          	li	tp,0
    800004bc:	800000b7          	lui	ra,0x80000
    800004c0:	00700113          	li	sp,7
    800004c4:	0020d73b          	srlw	a4,ra,sp
    800004c8:	00120213          	addi	tp,tp,1 # 1 <_start-0x7fffffff>
    800004cc:	00200293          	li	t0,2
    800004d0:	fe5216e3          	bne	tp,t0,800004bc <test_28+0x4>
    800004d4:	01000eb7          	lui	t4,0x1000
    800004d8:	01c00193          	li	gp,28
    800004dc:	25d71a63          	bne	a4,t4,80000730 <fail>

00000000800004e0 <test_29>:
    800004e0:	00000213          	li	tp,0
    800004e4:	800000b7          	lui	ra,0x80000
    800004e8:	00e00113          	li	sp,14
    800004ec:	00000013          	nop
    800004f0:	0020d73b          	srlw	a4,ra,sp
    800004f4:	00120213          	addi	tp,tp,1 # 1 <_start-0x7fffffff>
    800004f8:	00200293          	li	t0,2
    800004fc:	fe5214e3          	bne	tp,t0,800004e4 <test_29+0x4>
    80000500:	00020eb7          	lui	t4,0x20
    80000504:	01d00193          	li	gp,29
    80000508:	23d71463          	bne	a4,t4,80000730 <fail>

000000008000050c <test_30>:
    8000050c:	00000213          	li	tp,0
    80000510:	800000b7          	lui	ra,0x80000
    80000514:	01f00113          	li	sp,31
    80000518:	00000013          	nop
    8000051c:	00000013          	nop
    80000520:	0020d73b          	srlw	a4,ra,sp
    80000524:	00120213          	addi	tp,tp,1 # 1 <_start-0x7fffffff>
    80000528:	00200293          	li	t0,2
    8000052c:	fe5212e3          	bne	tp,t0,80000510 <test_30+0x4>
    80000530:	00100e93          	li	t4,1
    80000534:	01e00193          	li	gp,30
    80000538:	1fd71c63          	bne	a4,t4,80000730 <fail>

000000008000053c <test_31>:
    8000053c:	00000213          	li	tp,0
    80000540:	800000b7          	lui	ra,0x80000
    80000544:	00000013          	nop
    80000548:	00700113          	li	sp,7
    8000054c:	0020d73b          	srlw	a4,ra,sp
    80000550:	00120213          	addi	tp,tp,1 # 1 <_start-0x7fffffff>
    80000554:	00200293          	li	t0,2
    80000558:	fe5214e3          	bne	tp,t0,80000540 <test_31+0x4>
    8000055c:	01000eb7          	lui	t4,0x1000
    80000560:	01f00193          	li	gp,31
    80000564:	1dd71663          	bne	a4,t4,80000730 <fail>

0000000080000568 <test_32>:
    80000568:	00000213          	li	tp,0
    8000056c:	800000b7          	lui	ra,0x80000
    80000570:	00000013          	nop
    80000574:	00e00113          	li	sp,14
    80000578:	00000013          	nop
    8000057c:	0020d73b          	srlw	a4,ra,sp
    80000580:	00120213          	addi	tp,tp,1 # 1 <_start-0x7fffffff>
    80000584:	00200293          	li	t0,2
    80000588:	fe5212e3          	bne	tp,t0,8000056c <test_32+0x4>
    8000058c:	00020eb7          	lui	t4,0x20
    80000590:	02000193          	li	gp,32
    80000594:	19d71e63          	bne	a4,t4,80000730 <fail>

0000000080000598 <test_33>:
    80000598:	00000213          	li	tp,0
    8000059c:	800000b7          	lui	ra,0x80000
    800005a0:	00000013          	nop
    800005a4:	00000013          	nop
    800005a8:	01f00113          	li	sp,31
    800005ac:	0020d73b          	srlw	a4,ra,sp
    800005b0:	00120213          	addi	tp,tp,1 # 1 <_start-0x7fffffff>
    800005b4:	00200293          	li	t0,2
    800005b8:	fe5212e3          	bne	tp,t0,8000059c <test_33+0x4>
    800005bc:	00100e93          	li	t4,1
    800005c0:	02100193          	li	gp,33
    800005c4:	17d71663          	bne	a4,t4,80000730 <fail>

00000000800005c8 <test_34>:
    800005c8:	00000213          	li	tp,0
    800005cc:	00700113          	li	sp,7
    800005d0:	800000b7          	lui	ra,0x80000
    800005d4:	0020d73b          	srlw	a4,ra,sp
    800005d8:	00120213          	addi	tp,tp,1 # 1 <_start-0x7fffffff>
    800005dc:	00200293          	li	t0,2
    800005e0:	fe5216e3          	bne	tp,t0,800005cc <test_34+0x4>
    800005e4:	01000eb7          	lui	t4,0x1000
    800005e8:	02200193          	li	gp,34
    800005ec:	15d71263          	bne	a4,t4,80000730 <fail>

00000000800005f0 <test_35>:
    800005f0:	00000213          	li	tp,0
    800005f4:	00e00113          	li	sp,14
    800005f8:	800000b7          	lui	ra,0x80000
    800005fc:	00000013          	nop
    80000600:	0020d73b          	srlw	a4,ra,sp
    80000604:	00120213          	addi	tp,tp,1 # 1 <_start-0x7fffffff>
    80000608:	00200293          	li	t0,2
    8000060c:	fe5214e3          	bne	tp,t0,800005f4 <test_35+0x4>
    80000610:	00020eb7          	lui	t4,0x20
    80000614:	02300193          	li	gp,35
    80000618:	11d71c63          	bne	a4,t4,80000730 <fail>

000000008000061c <test_36>:
    8000061c:	00000213          	li	tp,0
    80000620:	01f00113          	li	sp,31
    80000624:	800000b7          	lui	ra,0x80000
    80000628:	00000013          	nop
    8000062c:	00000013          	nop
    80000630:	0020d73b          	srlw	a4,ra,sp
    80000634:	00120213          	addi	tp,tp,1 # 1 <_start-0x7fffffff>
    80000638:	00200293          	li	t0,2
    8000063c:	fe5212e3          	bne	tp,t0,80000620 <test_36+0x4>
    80000640:	00100e93          	li	t4,1
    80000644:	02400193          	li	gp,36
    80000648:	0fd71463          	bne	a4,t4,80000730 <fail>

000000008000064c <test_37>:
    8000064c:	00000213          	li	tp,0
    80000650:	00700113          	li	sp,7
    80000654:	00000013          	nop
    80000658:	800000b7          	lui	ra,0x80000
    8000065c:	0020d73b          	srlw	a4,ra,sp
    80000660:	00120213          	addi	tp,tp,1 # 1 <_start-0x7fffffff>
    80000664:	00200293          	li	t0,2
    80000668:	fe5214e3          	bne	tp,t0,80000650 <test_37+0x4>
    8000066c:	01000eb7          	lui	t4,0x1000
    80000670:	02500193          	li	gp,37
    80000674:	0bd71e63          	bne	a4,t4,80000730 <fail>

0000000080000678 <test_38>:
    80000678:	00000213          	li	tp,0
    8000067c:	00e00113          	li	sp,14
    80000680:	00000013          	nop
    80000684:	800000b7          	lui	ra,0x80000
    80000688:	00000013          	nop
    8000068c:	0020d73b          	srlw	a4,ra,sp
    80000690:	00120213          	addi	tp,tp,1 # 1 <_start-0x7fffffff>
    80000694:	00200293          	li	t0,2
    80000698:	fe5212e3          	bne	tp,t0,8000067c <test_38+0x4>
    8000069c:	00020eb7          	lui	t4,0x20
    800006a0:	02600193          	li	gp,38
    800006a4:	09d71663          	bne	a4,t4,80000730 <fail>

00000000800006a8 <test_39>:
    800006a8:	00000213          	li	tp,0
    800006ac:	01f00113          	li	sp,31
    800006b0:	00000013          	nop
    800006b4:	00000013          	nop
    800006b8:	800000b7          	lui	ra,0x80000
    800006bc:	0020d73b          	srlw	a4,ra,sp
    800006c0:	00120213          	addi	tp,tp,1 # 1 <_start-0x7fffffff>
    800006c4:	00200293          	li	t0,2
    800006c8:	fe5212e3          	bne	tp,t0,800006ac <test_39+0x4>
    800006cc:	00100e93          	li	t4,1
    800006d0:	02700193          	li	gp,39
    800006d4:	05d71e63          	bne	a4,t4,80000730 <fail>

00000000800006d8 <test_40>:
    800006d8:	00f00093          	li	ra,15
    800006dc:	0010513b          	srlw	sp,zero,ra
    800006e0:	00000e93          	li	t4,0
    800006e4:	02800193          	li	gp,40
    800006e8:	05d11463          	bne	sp,t4,80000730 <fail>

00000000800006ec <test_41>:
    800006ec:	02000093          	li	ra,32
    800006f0:	0000d13b          	srlw	sp,ra,zero
    800006f4:	02000e93          	li	t4,32
    800006f8:	02900193          	li	gp,41
    800006fc:	03d11a63          	bne	sp,t4,80000730 <fail>

0000000080000700 <test_42>:
    80000700:	000050bb          	srlw	ra,zero,zero
    80000704:	00000e93          	li	t4,0
    80000708:	02a00193          	li	gp,42
    8000070c:	03d09263          	bne	ra,t4,80000730 <fail>

0000000080000710 <test_43>:
    80000710:	40000093          	li	ra,1024
    80000714:	00001137          	lui	sp,0x1
    80000718:	8001011b          	addiw	sp,sp,-2048
    8000071c:	0020d03b          	srlw	zero,ra,sp
    80000720:	00000e93          	li	t4,0
    80000724:	02b00193          	li	gp,43
    80000728:	01d01463          	bne	zero,t4,80000730 <fail>
    8000072c:	02301063          	bne	zero,gp,8000074c <pass>

0000000080000730 <fail>:
    80000730:	0ff0000f          	fence
    80000734:	00018063          	beqz	gp,80000734 <fail+0x4>
    80000738:	00119193          	slli	gp,gp,0x1
    8000073c:	0011e193          	ori	gp,gp,1
    80000740:	05d00893          	li	a7,93
    80000744:	00018513          	mv	a0,gp
    80000748:	00000073          	ecall

000000008000074c <pass>:
    8000074c:	0ff0000f          	fence
    80000750:	00100193          	li	gp,1
    80000754:	05d00893          	li	a7,93
    80000758:	00000513          	li	a0,0
    8000075c:	00000073          	ecall
    80000760:	c0001073          	unimp
    80000764:	0000                	unimp
    80000766:	0000                	unimp
    80000768:	0000                	unimp
    8000076a:	0000                	unimp
    8000076c:	0000                	unimp
    8000076e:	0000                	unimp
    80000770:	0000                	unimp
    80000772:	0000                	unimp
    80000774:	0000                	unimp
    80000776:	0000                	unimp
    80000778:	0000                	unimp
    8000077a:	0000                	unimp
    8000077c:	0000                	unimp
    8000077e:	0000                	unimp
    80000780:	0000                	unimp
    80000782:	0000                	unimp
