
rv64uc-v-rvc:     file format elf64-littleriscv


Disassembly of section .text.init:

0000000080000000 <_start>:
    80000000:	00c0006f          	j	8000000c <handle_reset>

0000000080000004 <nmi_vector>:
    80000004:	2600206f          	j	80002264 <wtf>

0000000080000008 <trap_vector>:
    80000008:	25c0206f          	j	80002264 <wtf>

000000008000000c <handle_reset>:
    8000000c:	00000093          	li	ra,0
    80000010:	00000113          	li	sp,0
    80000014:	00000193          	li	gp,0
    80000018:	00000213          	li	tp,0
    8000001c:	00000293          	li	t0,0
    80000020:	00000313          	li	t1,0
    80000024:	00000393          	li	t2,0
    80000028:	00000413          	li	s0,0
    8000002c:	00000493          	li	s1,0
    80000030:	00000513          	li	a0,0
    80000034:	00000593          	li	a1,0
    80000038:	00000613          	li	a2,0
    8000003c:	00000693          	li	a3,0
    80000040:	00000713          	li	a4,0
    80000044:	00000793          	li	a5,0
    80000048:	00000813          	li	a6,0
    8000004c:	00000893          	li	a7,0
    80000050:	00000913          	li	s2,0
    80000054:	00000993          	li	s3,0
    80000058:	00000a13          	li	s4,0
    8000005c:	00000a93          	li	s5,0
    80000060:	00000b13          	li	s6,0
    80000064:	00000b93          	li	s7,0
    80000068:	00000c13          	li	s8,0
    8000006c:	00000c93          	li	s9,0
    80000070:	00000d13          	li	s10,0
    80000074:	00000d93          	li	s11,0
    80000078:	00000e13          	li	t3,0
    8000007c:	00000e93          	li	t4,0
    80000080:	00000f13          	li	t5,0
    80000084:	00000f93          	li	t6,0
    80000088:	00000297          	auipc	t0,0x0
    8000008c:	f8028293          	addi	t0,t0,-128 # 80000008 <trap_vector>
    80000090:	30529073          	csrw	mtvec,t0
    80000094:	0000c117          	auipc	sp,0xc
    80000098:	63c10113          	addi	sp,sp,1596 # 8000c6d0 <_end+0xee0>
    8000009c:	f14022f3          	csrr	t0,mhartid
    800000a0:	00c29293          	slli	t0,t0,0xc
    800000a4:	00510133          	add	sp,sp,t0
    800000a8:	34011073          	csrw	mscratch,sp
    800000ac:	755020ef          	jal	ra,80003000 <extra_boot>
    800000b0:	00003517          	auipc	a0,0x3
    800000b4:	f5450513          	addi	a0,a0,-172 # 80003004 <userstart>
    800000b8:	7f80206f          	j	800028b0 <vm_boot>

00000000800000bc <pop_tf>:
    800000bc:	10853283          	ld	t0,264(a0)
    800000c0:	14129073          	csrw	sepc,t0
    800000c4:	00853083          	ld	ra,8(a0)
    800000c8:	01053103          	ld	sp,16(a0)
    800000cc:	01853183          	ld	gp,24(a0)
    800000d0:	02053203          	ld	tp,32(a0)
    800000d4:	02853283          	ld	t0,40(a0)
    800000d8:	03053303          	ld	t1,48(a0)
    800000dc:	03853383          	ld	t2,56(a0)
    800000e0:	04053403          	ld	s0,64(a0)
    800000e4:	04853483          	ld	s1,72(a0)
    800000e8:	05853583          	ld	a1,88(a0)
    800000ec:	06053603          	ld	a2,96(a0)
    800000f0:	06853683          	ld	a3,104(a0)
    800000f4:	07053703          	ld	a4,112(a0)
    800000f8:	07853783          	ld	a5,120(a0)
    800000fc:	08053803          	ld	a6,128(a0)
    80000100:	08853883          	ld	a7,136(a0)
    80000104:	09053903          	ld	s2,144(a0)
    80000108:	09853983          	ld	s3,152(a0)
    8000010c:	0a053a03          	ld	s4,160(a0)
    80000110:	0a853a83          	ld	s5,168(a0)
    80000114:	0b053b03          	ld	s6,176(a0)
    80000118:	0b853b83          	ld	s7,184(a0)
    8000011c:	0c053c03          	ld	s8,192(a0)
    80000120:	0c853c83          	ld	s9,200(a0)
    80000124:	0d053d03          	ld	s10,208(a0)
    80000128:	0d853d83          	ld	s11,216(a0)
    8000012c:	0e053e03          	ld	t3,224(a0)
    80000130:	0e853e83          	ld	t4,232(a0)
    80000134:	0f053f03          	ld	t5,240(a0)
    80000138:	0f853f83          	ld	t6,248(a0)
    8000013c:	05053503          	ld	a0,80(a0)
    80000140:	10200073          	sret

0000000080000144 <trap_entry>:
    80000144:	14011173          	csrrw	sp,sscratch,sp
    80000148:	00113423          	sd	ra,8(sp)
    8000014c:	00313c23          	sd	gp,24(sp)
    80000150:	02413023          	sd	tp,32(sp)
    80000154:	02513423          	sd	t0,40(sp)
    80000158:	02613823          	sd	t1,48(sp)
    8000015c:	02713c23          	sd	t2,56(sp)
    80000160:	04813023          	sd	s0,64(sp)
    80000164:	04913423          	sd	s1,72(sp)
    80000168:	04a13823          	sd	a0,80(sp)
    8000016c:	04b13c23          	sd	a1,88(sp)
    80000170:	06c13023          	sd	a2,96(sp)
    80000174:	06d13423          	sd	a3,104(sp)
    80000178:	06e13823          	sd	a4,112(sp)
    8000017c:	06f13c23          	sd	a5,120(sp)
    80000180:	09013023          	sd	a6,128(sp)
    80000184:	09113423          	sd	a7,136(sp)
    80000188:	09213823          	sd	s2,144(sp)
    8000018c:	09313c23          	sd	s3,152(sp)
    80000190:	0b413023          	sd	s4,160(sp)
    80000194:	0b513423          	sd	s5,168(sp)
    80000198:	0b613823          	sd	s6,176(sp)
    8000019c:	0b713c23          	sd	s7,184(sp)
    800001a0:	0d813023          	sd	s8,192(sp)
    800001a4:	0d913423          	sd	s9,200(sp)
    800001a8:	0da13823          	sd	s10,208(sp)
    800001ac:	0db13c23          	sd	s11,216(sp)
    800001b0:	0fc13023          	sd	t3,224(sp)
    800001b4:	0fd13423          	sd	t4,232(sp)
    800001b8:	0fe13823          	sd	t5,240(sp)
    800001bc:	0ff13c23          	sd	t6,248(sp)
    800001c0:	140112f3          	csrrw	t0,sscratch,sp
    800001c4:	00513823          	sd	t0,16(sp)
    800001c8:	100022f3          	csrr	t0,sstatus
    800001cc:	10513023          	sd	t0,256(sp)
    800001d0:	141022f3          	csrr	t0,sepc
    800001d4:	10513423          	sd	t0,264(sp)
    800001d8:	143022f3          	csrr	t0,stval
    800001dc:	10513823          	sd	t0,272(sp)
    800001e0:	142022f3          	csrr	t0,scause
    800001e4:	10513c23          	sd	t0,280(sp)
    800001e8:	00010513          	mv	a0,sp
    800001ec:	3a40206f          	j	80002590 <handle_trap>

Disassembly of section .text:

0000000080002000 <memcpy>:
    80002000:	00c5e7b3          	or	a5,a1,a2
    80002004:	00f567b3          	or	a5,a0,a5
    80002008:	0077f793          	andi	a5,a5,7
    8000200c:	00c506b3          	add	a3,a0,a2
    80002010:	02078463          	beqz	a5,80002038 <memcpy+0x38>
    80002014:	00c58633          	add	a2,a1,a2
    80002018:	00050793          	mv	a5,a0
    8000201c:	02d57e63          	bgeu	a0,a3,80002058 <memcpy+0x58>
    80002020:	0005c703          	lbu	a4,0(a1)
    80002024:	00158593          	addi	a1,a1,1
    80002028:	00178793          	addi	a5,a5,1
    8000202c:	fee78fa3          	sb	a4,-1(a5)
    80002030:	fec598e3          	bne	a1,a2,80002020 <memcpy+0x20>
    80002034:	00008067          	ret
    80002038:	fed57ee3          	bgeu	a0,a3,80002034 <memcpy+0x34>
    8000203c:	00050793          	mv	a5,a0
    80002040:	0005b703          	ld	a4,0(a1)
    80002044:	00878793          	addi	a5,a5,8
    80002048:	00858593          	addi	a1,a1,8
    8000204c:	fee7bc23          	sd	a4,-8(a5)
    80002050:	fed7e8e3          	bltu	a5,a3,80002040 <memcpy+0x40>
    80002054:	00008067          	ret
    80002058:	00008067          	ret

000000008000205c <memset>:
    8000205c:	00c567b3          	or	a5,a0,a2
    80002060:	0077f793          	andi	a5,a5,7
    80002064:	00c50633          	add	a2,a0,a2
    80002068:	0ff5f593          	andi	a1,a1,255
    8000206c:	00078e63          	beqz	a5,80002088 <memset+0x2c>
    80002070:	00050793          	mv	a5,a0
    80002074:	04c57263          	bgeu	a0,a2,800020b8 <memset+0x5c>
    80002078:	00178793          	addi	a5,a5,1
    8000207c:	feb78fa3          	sb	a1,-1(a5)
    80002080:	fef61ce3          	bne	a2,a5,80002078 <memset+0x1c>
    80002084:	00008067          	ret
    80002088:	00859793          	slli	a5,a1,0x8
    8000208c:	00b7e5b3          	or	a1,a5,a1
    80002090:	01059793          	slli	a5,a1,0x10
    80002094:	00b7e7b3          	or	a5,a5,a1
    80002098:	02079593          	slli	a1,a5,0x20
    8000209c:	00f5e5b3          	or	a1,a1,a5
    800020a0:	fec572e3          	bgeu	a0,a2,80002084 <memset+0x28>
    800020a4:	00050793          	mv	a5,a0
    800020a8:	00878793          	addi	a5,a5,8
    800020ac:	feb7bc23          	sd	a1,-8(a5)
    800020b0:	fec7ece3          	bltu	a5,a2,800020a8 <memset+0x4c>
    800020b4:	00008067          	ret
    800020b8:	00008067          	ret

00000000800020bc <strlen>:
    800020bc:	00054783          	lbu	a5,0(a0)
    800020c0:	00078e63          	beqz	a5,800020dc <strlen+0x20>
    800020c4:	00050793          	mv	a5,a0
    800020c8:	0017c703          	lbu	a4,1(a5)
    800020cc:	00178793          	addi	a5,a5,1
    800020d0:	fe071ce3          	bnez	a4,800020c8 <strlen+0xc>
    800020d4:	40a78533          	sub	a0,a5,a0
    800020d8:	00008067          	ret
    800020dc:	00000513          	li	a0,0
    800020e0:	00008067          	ret

00000000800020e4 <strcmp>:
    800020e4:	00054783          	lbu	a5,0(a0)
    800020e8:	00158593          	addi	a1,a1,1
    800020ec:	00150513          	addi	a0,a0,1
    800020f0:	fff5c703          	lbu	a4,-1(a1)
    800020f4:	00078a63          	beqz	a5,80002108 <strcmp+0x24>
    800020f8:	fee786e3          	beq	a5,a4,800020e4 <strcmp>
    800020fc:	0007851b          	sext.w	a0,a5
    80002100:	40e5053b          	subw	a0,a0,a4
    80002104:	00008067          	ret
    80002108:	00000513          	li	a0,0
    8000210c:	ff5ff06f          	j	80002100 <strcmp+0x1c>

0000000080002110 <memcmp>:
    80002110:	00b567b3          	or	a5,a0,a1
    80002114:	0077f793          	andi	a5,a5,7
    80002118:	02079e63          	bnez	a5,80002154 <memcmp+0x44>
    8000211c:	ff867813          	andi	a6,a2,-8
    80002120:	01050833          	add	a6,a0,a6
    80002124:	03057863          	bgeu	a0,a6,80002154 <memcmp+0x44>
    80002128:	00050793          	mv	a5,a0
    8000212c:	0100006f          	j	8000213c <memcmp+0x2c>
    80002130:	00878793          	addi	a5,a5,8
    80002134:	00858593          	addi	a1,a1,8
    80002138:	0107f863          	bgeu	a5,a6,80002148 <memcmp+0x38>
    8000213c:	0007b683          	ld	a3,0(a5)
    80002140:	0005b703          	ld	a4,0(a1)
    80002144:	fee686e3          	beq	a3,a4,80002130 <memcmp+0x20>
    80002148:	40a78533          	sub	a0,a5,a0
    8000214c:	40a60633          	sub	a2,a2,a0
    80002150:	00078513          	mv	a0,a5
    80002154:	00c58633          	add	a2,a1,a2
    80002158:	0140006f          	j	8000216c <memcmp+0x5c>
    8000215c:	0005c703          	lbu	a4,0(a1)
    80002160:	fff54783          	lbu	a5,-1(a0)
    80002164:	00158593          	addi	a1,a1,1
    80002168:	00e79a63          	bne	a5,a4,8000217c <memcmp+0x6c>
    8000216c:	00150513          	addi	a0,a0,1
    80002170:	fec596e3          	bne	a1,a2,8000215c <memcmp+0x4c>
    80002174:	00000513          	li	a0,0
    80002178:	00008067          	ret
    8000217c:	40e7853b          	subw	a0,a5,a4
    80002180:	00008067          	ret

0000000080002184 <strcpy>:
    80002184:	00050793          	mv	a5,a0
    80002188:	0005c703          	lbu	a4,0(a1)
    8000218c:	00178793          	addi	a5,a5,1
    80002190:	00158593          	addi	a1,a1,1
    80002194:	fee78fa3          	sb	a4,-1(a5)
    80002198:	fe0718e3          	bnez	a4,80002188 <strcpy+0x4>
    8000219c:	00008067          	ret

00000000800021a0 <atol>:
    800021a0:	00054703          	lbu	a4,0(a0)
    800021a4:	02000693          	li	a3,32
    800021a8:	00050793          	mv	a5,a0
    800021ac:	00d71863          	bne	a4,a3,800021bc <atol+0x1c>
    800021b0:	0017c703          	lbu	a4,1(a5)
    800021b4:	00178793          	addi	a5,a5,1
    800021b8:	fed70ce3          	beq	a4,a3,800021b0 <atol+0x10>
    800021bc:	02d00693          	li	a3,45
    800021c0:	06d70063          	beq	a4,a3,80002220 <atol+0x80>
    800021c4:	02b00693          	li	a3,43
    800021c8:	04d70063          	beq	a4,a3,80002208 <atol+0x68>
    800021cc:	0007c683          	lbu	a3,0(a5)
    800021d0:	00000593          	li	a1,0
    800021d4:	04068263          	beqz	a3,80002218 <atol+0x78>
    800021d8:	00000513          	li	a0,0
    800021dc:	00178793          	addi	a5,a5,1
    800021e0:	fd06861b          	addiw	a2,a3,-48
    800021e4:	00251713          	slli	a4,a0,0x2
    800021e8:	0007c683          	lbu	a3,0(a5)
    800021ec:	00a70533          	add	a0,a4,a0
    800021f0:	00151513          	slli	a0,a0,0x1
    800021f4:	00a60533          	add	a0,a2,a0
    800021f8:	fe0692e3          	bnez	a3,800021dc <atol+0x3c>
    800021fc:	02058063          	beqz	a1,8000221c <atol+0x7c>
    80002200:	40a00533          	neg	a0,a0
    80002204:	00008067          	ret
    80002208:	0017c683          	lbu	a3,1(a5)
    8000220c:	00000593          	li	a1,0
    80002210:	00178793          	addi	a5,a5,1
    80002214:	fc0692e3          	bnez	a3,800021d8 <atol+0x38>
    80002218:	00000513          	li	a0,0
    8000221c:	00008067          	ret
    80002220:	0017c683          	lbu	a3,1(a5)
    80002224:	00100593          	li	a1,1
    80002228:	00178793          	addi	a5,a5,1
    8000222c:	fa0696e3          	bnez	a3,800021d8 <atol+0x38>
    80002230:	00000513          	li	a0,0
    80002234:	fe9ff06f          	j	8000221c <atol+0x7c>

0000000080002238 <terminate>:
    80002238:	fffff797          	auipc	a5,0xfffff
    8000223c:	dc878793          	addi	a5,a5,-568 # 80001000 <tohost>
    80002240:	0007b683          	ld	a3,0(a5)
    80002244:	00050713          	mv	a4,a0
    80002248:	00068a63          	beqz	a3,8000225c <terminate+0x24>
    8000224c:	fffff697          	auipc	a3,0xfffff
    80002250:	de06ba23          	sd	zero,-524(a3) # 80001040 <fromhost>
    80002254:	0007b683          	ld	a3,0(a5)
    80002258:	fe069ae3          	bnez	a3,8000224c <terminate+0x14>
    8000225c:	00e7b023          	sd	a4,0(a5)
    80002260:	0000006f          	j	80002260 <terminate+0x28>

0000000080002264 <wtf>:
    80002264:	ff010113          	addi	sp,sp,-16
    80002268:	34900513          	li	a0,841
    8000226c:	00113423          	sd	ra,8(sp)
    80002270:	fc9ff0ef          	jal	ra,80002238 <terminate>

0000000080002274 <printhex>:
    80002274:	fe010113          	addi	sp,sp,-32
    80002278:	00810613          	addi	a2,sp,8
    8000227c:	01710793          	addi	a5,sp,23
    80002280:	00900813          	li	a6,9
    80002284:	0080006f          	j	8000228c <printhex+0x18>
    80002288:	00070793          	mv	a5,a4
    8000228c:	00f57693          	andi	a3,a0,15
    80002290:	00068713          	mv	a4,a3
    80002294:	03000593          	li	a1,48
    80002298:	00d87463          	bgeu	a6,a3,800022a0 <printhex+0x2c>
    8000229c:	05700593          	li	a1,87
    800022a0:	00b7073b          	addw	a4,a4,a1
    800022a4:	00e78023          	sb	a4,0(a5)
    800022a8:	00455513          	srli	a0,a0,0x4
    800022ac:	fff78713          	addi	a4,a5,-1
    800022b0:	fcf61ce3          	bne	a2,a5,80002288 <printhex+0x14>
    800022b4:	00814783          	lbu	a5,8(sp)
    800022b8:	00010c23          	sb	zero,24(sp)
    800022bc:	04078263          	beqz	a5,80002300 <printhex+0x8c>
    800022c0:	10100513          	li	a0,257
    800022c4:	00060693          	mv	a3,a2
    800022c8:	fffff717          	auipc	a4,0xfffff
    800022cc:	d3870713          	addi	a4,a4,-712 # 80001000 <tohost>
    800022d0:	03051513          	slli	a0,a0,0x30
    800022d4:	00073583          	ld	a1,0(a4)
    800022d8:	00168693          	addi	a3,a3,1
    800022dc:	00a7e633          	or	a2,a5,a0
    800022e0:	00058a63          	beqz	a1,800022f4 <printhex+0x80>
    800022e4:	fffff797          	auipc	a5,0xfffff
    800022e8:	d407be23          	sd	zero,-676(a5) # 80001040 <fromhost>
    800022ec:	00073783          	ld	a5,0(a4)
    800022f0:	fe079ae3          	bnez	a5,800022e4 <printhex+0x70>
    800022f4:	0006c783          	lbu	a5,0(a3)
    800022f8:	00c73023          	sd	a2,0(a4)
    800022fc:	fc079ce3          	bnez	a5,800022d4 <printhex+0x60>
    80002300:	02010113          	addi	sp,sp,32
    80002304:	00008067          	ret

0000000080002308 <handle_fault>:
    80002308:	fffff6b7          	lui	a3,0xfffff
    8000230c:	00d50733          	add	a4,a0,a3
    80002310:	0003e7b7          	lui	a5,0x3e
    80002314:	14f77063          	bgeu	a4,a5,80002454 <handle_fault+0x14c>
    80002318:	00c55893          	srli	a7,a0,0xc
    8000231c:	60088813          	addi	a6,a7,1536
    80002320:	00005617          	auipc	a2,0x5
    80002324:	ce060613          	addi	a2,a2,-800 # 80007000 <begin_signature>
    80002328:	00381793          	slli	a5,a6,0x3
    8000232c:	00f607b3          	add	a5,a2,a5
    80002330:	0007b703          	ld	a4,0(a5) # 3e000 <_start-0x7ffc2000>
    80002334:	00d57533          	and	a0,a0,a3
    80002338:	02070663          	beqz	a4,80002364 <handle_fault+0x5c>
    8000233c:	04077693          	andi	a3,a4,64
    80002340:	0e068c63          	beqz	a3,80002438 <handle_fault+0x130>
    80002344:	08077693          	andi	a3,a4,128
    80002348:	16069263          	bnez	a3,800024ac <handle_fault+0x1a4>
    8000234c:	00f00693          	li	a3,15
    80002350:	14d59e63          	bne	a1,a3,800024ac <handle_fault+0x1a4>
    80002354:	08076713          	ori	a4,a4,128
    80002358:	00e7b023          	sd	a4,0(a5)
    8000235c:	12050073          	sfence.vma	a0
    80002360:	00008067          	ret
    80002364:	00009697          	auipc	a3,0x9
    80002368:	48468693          	addi	a3,a3,1156 # 8000b7e8 <freelist_head>
    8000236c:	0006b703          	ld	a4,0(a3)
    80002370:	18070463          	beqz	a4,800024f8 <handle_fault+0x1f0>
    80002374:	00873783          	ld	a5,8(a4)
    80002378:	00009597          	auipc	a1,0x9
    8000237c:	4685b583          	ld	a1,1128(a1) # 8000b7e0 <freelist_tail>
    80002380:	00f6b023          	sd	a5,0(a3)
    80002384:	0cb78263          	beq	a5,a1,80002448 <handle_fault+0x140>
    80002388:	00073783          	ld	a5,0(a4)
    8000238c:	00381593          	slli	a1,a6,0x3
    80002390:	00b605b3          	add	a1,a2,a1
    80002394:	00c7d793          	srli	a5,a5,0xc
    80002398:	00a79793          	slli	a5,a5,0xa
    8000239c:	0df7e313          	ori	t1,a5,223
    800023a0:	01f7e693          	ori	a3,a5,31
    800023a4:	0065b023          	sd	t1,0(a1)
    800023a8:	12050073          	sfence.vma	a0
    800023ac:	00009797          	auipc	a5,0x9
    800023b0:	04478793          	addi	a5,a5,68 # 8000b3f0 <user_mapping>
    800023b4:	00489893          	slli	a7,a7,0x4
    800023b8:	011788b3          	add	a7,a5,a7
    800023bc:	0008b783          	ld	a5,0(a7)
    800023c0:	18079263          	bnez	a5,80002544 <handle_fault+0x23c>
    800023c4:	00073783          	ld	a5,0(a4)
    800023c8:	00f8b023          	sd	a5,0(a7)
    800023cc:	00873783          	ld	a5,8(a4)
    800023d0:	00f8b423          	sd	a5,8(a7)
    800023d4:	000408b7          	lui	a7,0x40
    800023d8:	1008a8f3          	csrrs	a7,sstatus,a7
    800023dc:	ffe007b7          	lui	a5,0xffe00
    800023e0:	00f507b3          	add	a5,a0,a5
    800023e4:	000015b7          	lui	a1,0x1
    800023e8:	00050713          	mv	a4,a0
    800023ec:	00b785b3          	add	a1,a5,a1
    800023f0:	0007bf03          	ld	t5,0(a5) # ffffffffffe00000 <_end+0xffffffff7fdf4810>
    800023f4:	0087be83          	ld	t4,8(a5)
    800023f8:	0107be03          	ld	t3,16(a5)
    800023fc:	0187b303          	ld	t1,24(a5)
    80002400:	01e73023          	sd	t5,0(a4)
    80002404:	01d73423          	sd	t4,8(a4)
    80002408:	01c73823          	sd	t3,16(a4)
    8000240c:	00673c23          	sd	t1,24(a4)
    80002410:	02078793          	addi	a5,a5,32
    80002414:	02070713          	addi	a4,a4,32
    80002418:	fcb79ce3          	bne	a5,a1,800023f0 <handle_fault+0xe8>
    8000241c:	10089073          	csrw	sstatus,a7
    80002420:	00381813          	slli	a6,a6,0x3
    80002424:	01060633          	add	a2,a2,a6
    80002428:	00d63023          	sd	a3,0(a2)
    8000242c:	12050073          	sfence.vma	a0
    80002430:	0000100f          	fence.i
    80002434:	00008067          	ret
    80002438:	04076713          	ori	a4,a4,64
    8000243c:	00e7b023          	sd	a4,0(a5)
    80002440:	12050073          	sfence.vma	a0
    80002444:	00008067          	ret
    80002448:	00009797          	auipc	a5,0x9
    8000244c:	3807bc23          	sd	zero,920(a5) # 8000b7e0 <freelist_tail>
    80002450:	f39ff06f          	j	80002388 <handle_fault+0x80>
    80002454:	10100613          	li	a2,257
    80002458:	04100713          	li	a4,65
    8000245c:	00004697          	auipc	a3,0x4
    80002460:	b6c68693          	addi	a3,a3,-1172 # 80005fc8 <pass+0xcec>
    80002464:	fffff797          	auipc	a5,0xfffff
    80002468:	b9c78793          	addi	a5,a5,-1124 # 80001000 <tohost>
    8000246c:	03061613          	slli	a2,a2,0x30
    80002470:	0007b503          	ld	a0,0(a5)
    80002474:	00168693          	addi	a3,a3,1
    80002478:	00c765b3          	or	a1,a4,a2
    8000247c:	00050a63          	beqz	a0,80002490 <handle_fault+0x188>
    80002480:	fffff717          	auipc	a4,0xfffff
    80002484:	bc073023          	sd	zero,-1088(a4) # 80001040 <fromhost>
    80002488:	0007b703          	ld	a4,0(a5)
    8000248c:	fe071ae3          	bnez	a4,80002480 <handle_fault+0x178>
    80002490:	0006c703          	lbu	a4,0(a3)
    80002494:	00b7b023          	sd	a1,0(a5)
    80002498:	fc071ce3          	bnez	a4,80002470 <handle_fault+0x168>
    8000249c:	ff010113          	addi	sp,sp,-16
    800024a0:	00300513          	li	a0,3
    800024a4:	00113423          	sd	ra,8(sp)
    800024a8:	d91ff0ef          	jal	ra,80002238 <terminate>
    800024ac:	10100613          	li	a2,257
    800024b0:	04100713          	li	a4,65
    800024b4:	00004697          	auipc	a3,0x4
    800024b8:	b5c68693          	addi	a3,a3,-1188 # 80006010 <pass+0xd34>
    800024bc:	fffff797          	auipc	a5,0xfffff
    800024c0:	b4478793          	addi	a5,a5,-1212 # 80001000 <tohost>
    800024c4:	03061613          	slli	a2,a2,0x30
    800024c8:	0007b503          	ld	a0,0(a5)
    800024cc:	00168693          	addi	a3,a3,1
    800024d0:	00c765b3          	or	a1,a4,a2
    800024d4:	00050a63          	beqz	a0,800024e8 <handle_fault+0x1e0>
    800024d8:	fffff717          	auipc	a4,0xfffff
    800024dc:	b6073423          	sd	zero,-1176(a4) # 80001040 <fromhost>
    800024e0:	0007b703          	ld	a4,0(a5)
    800024e4:	fe071ae3          	bnez	a4,800024d8 <handle_fault+0x1d0>
    800024e8:	0006c703          	lbu	a4,0(a3)
    800024ec:	00b7b023          	sd	a1,0(a5)
    800024f0:	fc071ce3          	bnez	a4,800024c8 <handle_fault+0x1c0>
    800024f4:	fa9ff06f          	j	8000249c <handle_fault+0x194>
    800024f8:	10100693          	li	a3,257
    800024fc:	04100713          	li	a4,65
    80002500:	00004617          	auipc	a2,0x4
    80002504:	b5860613          	addi	a2,a2,-1192 # 80006058 <pass+0xd7c>
    80002508:	fffff797          	auipc	a5,0xfffff
    8000250c:	af878793          	addi	a5,a5,-1288 # 80001000 <tohost>
    80002510:	03069693          	slli	a3,a3,0x30
    80002514:	0007b503          	ld	a0,0(a5)
    80002518:	00160613          	addi	a2,a2,1
    8000251c:	00d765b3          	or	a1,a4,a3
    80002520:	00050a63          	beqz	a0,80002534 <handle_fault+0x22c>
    80002524:	fffff717          	auipc	a4,0xfffff
    80002528:	b0073e23          	sd	zero,-1252(a4) # 80001040 <fromhost>
    8000252c:	0007b703          	ld	a4,0(a5)
    80002530:	fe071ae3          	bnez	a4,80002524 <handle_fault+0x21c>
    80002534:	00064703          	lbu	a4,0(a2)
    80002538:	00b7b023          	sd	a1,0(a5)
    8000253c:	fc071ce3          	bnez	a4,80002514 <handle_fault+0x20c>
    80002540:	f5dff06f          	j	8000249c <handle_fault+0x194>
    80002544:	10100693          	li	a3,257
    80002548:	04100713          	li	a4,65
    8000254c:	00004617          	auipc	a2,0x4
    80002550:	b2460613          	addi	a2,a2,-1244 # 80006070 <pass+0xd94>
    80002554:	fffff797          	auipc	a5,0xfffff
    80002558:	aac78793          	addi	a5,a5,-1364 # 80001000 <tohost>
    8000255c:	03069693          	slli	a3,a3,0x30
    80002560:	0007b503          	ld	a0,0(a5)
    80002564:	00160613          	addi	a2,a2,1
    80002568:	00d765b3          	or	a1,a4,a3
    8000256c:	00050a63          	beqz	a0,80002580 <handle_fault+0x278>
    80002570:	fffff717          	auipc	a4,0xfffff
    80002574:	ac073823          	sd	zero,-1328(a4) # 80001040 <fromhost>
    80002578:	0007b703          	ld	a4,0(a5)
    8000257c:	fe071ae3          	bnez	a4,80002570 <handle_fault+0x268>
    80002580:	00064703          	lbu	a4,0(a2)
    80002584:	00b7b023          	sd	a1,0(a5)
    80002588:	fc071ce3          	bnez	a4,80002560 <handle_fault+0x258>
    8000258c:	f11ff06f          	j	8000249c <handle_fault+0x194>

0000000080002590 <handle_trap>:
    80002590:	11853583          	ld	a1,280(a0)
    80002594:	f8010113          	addi	sp,sp,-128
    80002598:	06813823          	sd	s0,112(sp)
    8000259c:	06113c23          	sd	ra,120(sp)
    800025a0:	06913423          	sd	s1,104(sp)
    800025a4:	07213023          	sd	s2,96(sp)
    800025a8:	05313c23          	sd	s3,88(sp)
    800025ac:	05413823          	sd	s4,80(sp)
    800025b0:	05513423          	sd	s5,72(sp)
    800025b4:	05613023          	sd	s6,64(sp)
    800025b8:	03713c23          	sd	s7,56(sp)
    800025bc:	03813823          	sd	s8,48(sp)
    800025c0:	03913423          	sd	s9,40(sp)
    800025c4:	03a13023          	sd	s10,32(sp)
    800025c8:	01b13c23          	sd	s11,24(sp)
    800025cc:	00800793          	li	a5,8
    800025d0:	00050413          	mv	s0,a0
    800025d4:	12f58663          	beq	a1,a5,80002700 <handle_trap+0x170>
    800025d8:	00200793          	li	a5,2
    800025dc:	06f58063          	beq	a1,a5,8000263c <handle_trap+0xac>
    800025e0:	ff458793          	addi	a5,a1,-12 # ff4 <_start-0x7ffff00c>
    800025e4:	00100713          	li	a4,1
    800025e8:	00f77663          	bgeu	a4,a5,800025f4 <handle_trap+0x64>
    800025ec:	00f00793          	li	a5,15
    800025f0:	1cf59e63          	bne	a1,a5,800027cc <handle_trap+0x23c>
    800025f4:	11043503          	ld	a0,272(s0)
    800025f8:	d11ff0ef          	jal	ra,80002308 <handle_fault>
    800025fc:	00040513          	mv	a0,s0
    80002600:	07013403          	ld	s0,112(sp)
    80002604:	07813083          	ld	ra,120(sp)
    80002608:	06813483          	ld	s1,104(sp)
    8000260c:	06013903          	ld	s2,96(sp)
    80002610:	05813983          	ld	s3,88(sp)
    80002614:	05013a03          	ld	s4,80(sp)
    80002618:	04813a83          	ld	s5,72(sp)
    8000261c:	04013b03          	ld	s6,64(sp)
    80002620:	03813b83          	ld	s7,56(sp)
    80002624:	03013c03          	ld	s8,48(sp)
    80002628:	02813c83          	ld	s9,40(sp)
    8000262c:	02013d03          	ld	s10,32(sp)
    80002630:	01813d83          	ld	s11,24(sp)
    80002634:	08010113          	addi	sp,sp,128
    80002638:	a85fd06f          	j	800000bc <pop_tf>
    8000263c:	10853703          	ld	a4,264(a0)
    80002640:	00377793          	andi	a5,a4,3
    80002644:	06079863          	bnez	a5,800026b4 <handle_trap+0x124>
    80002648:	008007ef          	jal	a5,80002650 <handle_trap+0xc0>
    8000264c:	00301073          	fscsr	zero
    80002650:	00072703          	lw	a4,0(a4)
    80002654:	0007a783          	lw	a5,0(a5)
    80002658:	04f70a63          	beq	a4,a5,800026ac <handle_trap+0x11c>
    8000265c:	10100513          	li	a0,257
    80002660:	04100793          	li	a5,65
    80002664:	00004697          	auipc	a3,0x4
    80002668:	ae468693          	addi	a3,a3,-1308 # 80006148 <pass+0xe6c>
    8000266c:	fffff717          	auipc	a4,0xfffff
    80002670:	99470713          	addi	a4,a4,-1644 # 80001000 <tohost>
    80002674:	03051513          	slli	a0,a0,0x30
    80002678:	00073583          	ld	a1,0(a4)
    8000267c:	00168693          	addi	a3,a3,1
    80002680:	00a7e633          	or	a2,a5,a0
    80002684:	00058a63          	beqz	a1,80002698 <handle_trap+0x108>
    80002688:	fffff797          	auipc	a5,0xfffff
    8000268c:	9a07bc23          	sd	zero,-1608(a5) # 80001040 <fromhost>
    80002690:	00073783          	ld	a5,0(a4)
    80002694:	fe079ae3          	bnez	a5,80002688 <handle_trap+0xf8>
    80002698:	0006c783          	lbu	a5,0(a3)
    8000269c:	00c73023          	sd	a2,0(a4)
    800026a0:	fc079ce3          	bnez	a5,80002678 <handle_trap+0xe8>
    800026a4:	00300513          	li	a0,3
    800026a8:	b91ff0ef          	jal	ra,80002238 <terminate>
    800026ac:	00100513          	li	a0,1
    800026b0:	b89ff0ef          	jal	ra,80002238 <terminate>
    800026b4:	10100793          	li	a5,257
    800026b8:	00004617          	auipc	a2,0x4
    800026bc:	a6860613          	addi	a2,a2,-1432 # 80006120 <pass+0xe44>
    800026c0:	04100693          	li	a3,65
    800026c4:	fffff717          	auipc	a4,0xfffff
    800026c8:	93c70713          	addi	a4,a4,-1732 # 80001000 <tohost>
    800026cc:	03079793          	slli	a5,a5,0x30
    800026d0:	00073503          	ld	a0,0(a4)
    800026d4:	00160613          	addi	a2,a2,1
    800026d8:	00f6e5b3          	or	a1,a3,a5
    800026dc:	00050a63          	beqz	a0,800026f0 <handle_trap+0x160>
    800026e0:	fffff697          	auipc	a3,0xfffff
    800026e4:	9606b023          	sd	zero,-1696(a3) # 80001040 <fromhost>
    800026e8:	00073683          	ld	a3,0(a4)
    800026ec:	fe069ae3          	bnez	a3,800026e0 <handle_trap+0x150>
    800026f0:	00064683          	lbu	a3,0(a2)
    800026f4:	00b73023          	sd	a1,0(a4)
    800026f8:	fc069ce3          	bnez	a3,800026d0 <handle_trap+0x140>
    800026fc:	fa9ff06f          	j	800026a4 <handle_trap+0x114>
    80002700:	05052903          	lw	s2,80(a0)
    80002704:	00001c37          	lui	s8,0x1
    80002708:	00009497          	auipc	s1,0x9
    8000270c:	ce848493          	addi	s1,s1,-792 # 8000b3f0 <user_mapping>
    80002710:	00005b97          	auipc	s7,0x5
    80002714:	8f0b8b93          	addi	s7,s7,-1808 # 80007000 <begin_signature>
    80002718:	00040b37          	lui	s6,0x40
    8000271c:	ffe00ab7          	lui	s5,0xffe00
    80002720:	00009d97          	auipc	s11,0x9
    80002724:	0c0d8d93          	addi	s11,s11,192 # 8000b7e0 <freelist_tail>
    80002728:	00009a17          	auipc	s4,0x9
    8000272c:	0c0a0a13          	addi	s4,s4,192 # 8000b7e8 <freelist_head>
    80002730:	0003f9b7          	lui	s3,0x3f
    80002734:	0180006f          	j	8000274c <handle_trap+0x1bc>
    80002738:	00f73423          	sd	a5,8(a4)
    8000273c:	00fdb023          	sd	a5,0(s11)
    80002740:	000017b7          	lui	a5,0x1
    80002744:	00fc0c33          	add	s8,s8,a5
    80002748:	173c0063          	beq	s8,s3,800028a8 <handle_trap+0x318>
    8000274c:	00cc5793          	srli	a5,s8,0xc
    80002750:	00479413          	slli	s0,a5,0x4
    80002754:	00848733          	add	a4,s1,s0
    80002758:	00073703          	ld	a4,0(a4)
    8000275c:	fe0702e3          	beqz	a4,80002740 <handle_trap+0x1b0>
    80002760:	60078793          	addi	a5,a5,1536 # 1600 <_start-0x7fffea00>
    80002764:	00379793          	slli	a5,a5,0x3
    80002768:	00fb87b3          	add	a5,s7,a5
    8000276c:	0007bc83          	ld	s9,0(a5)
    80002770:	040cf793          	andi	a5,s9,64
    80002774:	0e078663          	beqz	a5,80002860 <handle_trap+0x2d0>
    80002778:	100b2d73          	csrrs	s10,sstatus,s6
    8000277c:	00001637          	lui	a2,0x1
    80002780:	015c05b3          	add	a1,s8,s5
    80002784:	000c0513          	mv	a0,s8
    80002788:	00b13423          	sd	a1,8(sp)
    8000278c:	985ff0ef          	jal	ra,80002110 <memcmp>
    80002790:	00050e63          	beqz	a0,800027ac <handle_trap+0x21c>
    80002794:	080cfc93          	andi	s9,s9,128
    80002798:	00813583          	ld	a1,8(sp)
    8000279c:	060c8e63          	beqz	s9,80002818 <handle_trap+0x288>
    800027a0:	00001637          	lui	a2,0x1
    800027a4:	000c0513          	mv	a0,s8
    800027a8:	859ff0ef          	jal	ra,80002000 <memcpy>
    800027ac:	008487b3          	add	a5,s1,s0
    800027b0:	100d1073          	csrw	sstatus,s10
    800027b4:	000db703          	ld	a4,0(s11)
    800027b8:	0007b023          	sd	zero,0(a5)
    800027bc:	f6071ee3          	bnez	a4,80002738 <handle_trap+0x1a8>
    800027c0:	00fdb023          	sd	a5,0(s11)
    800027c4:	00fa3023          	sd	a5,0(s4)
    800027c8:	f79ff06f          	j	80002740 <handle_trap+0x1b0>
    800027cc:	10100793          	li	a5,257
    800027d0:	04100613          	li	a2,65
    800027d4:	00004697          	auipc	a3,0x4
    800027d8:	9a468693          	addi	a3,a3,-1628 # 80006178 <pass+0xe9c>
    800027dc:	fffff717          	auipc	a4,0xfffff
    800027e0:	82470713          	addi	a4,a4,-2012 # 80001000 <tohost>
    800027e4:	03079793          	slli	a5,a5,0x30
    800027e8:	00073503          	ld	a0,0(a4)
    800027ec:	00168693          	addi	a3,a3,1
    800027f0:	00f665b3          	or	a1,a2,a5
    800027f4:	00050a63          	beqz	a0,80002808 <handle_trap+0x278>
    800027f8:	fffff617          	auipc	a2,0xfffff
    800027fc:	84063423          	sd	zero,-1976(a2) # 80001040 <fromhost>
    80002800:	00073603          	ld	a2,0(a4)
    80002804:	fe061ae3          	bnez	a2,800027f8 <handle_trap+0x268>
    80002808:	0006c603          	lbu	a2,0(a3)
    8000280c:	00b73023          	sd	a1,0(a4)
    80002810:	fc061ce3          	bnez	a2,800027e8 <handle_trap+0x258>
    80002814:	e91ff06f          	j	800026a4 <handle_trap+0x114>
    80002818:	10100793          	li	a5,257
    8000281c:	04100613          	li	a2,65
    80002820:	00004697          	auipc	a3,0x4
    80002824:	8c868693          	addi	a3,a3,-1848 # 800060e8 <pass+0xe0c>
    80002828:	ffffe717          	auipc	a4,0xffffe
    8000282c:	7d870713          	addi	a4,a4,2008 # 80001000 <tohost>
    80002830:	03079793          	slli	a5,a5,0x30
    80002834:	00168693          	addi	a3,a3,1
    80002838:	00f665b3          	or	a1,a2,a5
    8000283c:	00c0006f          	j	80002848 <handle_trap+0x2b8>
    80002840:	fffff617          	auipc	a2,0xfffff
    80002844:	80063023          	sd	zero,-2048(a2) # 80001040 <fromhost>
    80002848:	00073603          	ld	a2,0(a4)
    8000284c:	fe061ae3          	bnez	a2,80002840 <handle_trap+0x2b0>
    80002850:	0006c603          	lbu	a2,0(a3)
    80002854:	00b73023          	sd	a1,0(a4)
    80002858:	fc061ee3          	bnez	a2,80002834 <handle_trap+0x2a4>
    8000285c:	e49ff06f          	j	800026a4 <handle_trap+0x114>
    80002860:	10100793          	li	a5,257
    80002864:	04100613          	li	a2,65
    80002868:	00004697          	auipc	a3,0x4
    8000286c:	84868693          	addi	a3,a3,-1976 # 800060b0 <pass+0xdd4>
    80002870:	ffffe717          	auipc	a4,0xffffe
    80002874:	79070713          	addi	a4,a4,1936 # 80001000 <tohost>
    80002878:	03079793          	slli	a5,a5,0x30
    8000287c:	00168693          	addi	a3,a3,1
    80002880:	00f665b3          	or	a1,a2,a5
    80002884:	00c0006f          	j	80002890 <handle_trap+0x300>
    80002888:	ffffe617          	auipc	a2,0xffffe
    8000288c:	7a063c23          	sd	zero,1976(a2) # 80001040 <fromhost>
    80002890:	00073603          	ld	a2,0(a4)
    80002894:	fe061ae3          	bnez	a2,80002888 <handle_trap+0x2f8>
    80002898:	0006c603          	lbu	a2,0(a3)
    8000289c:	00b73023          	sd	a1,0(a4)
    800028a0:	fc061ee3          	bnez	a2,8000287c <handle_trap+0x2ec>
    800028a4:	e01ff06f          	j	800026a4 <handle_trap+0x114>
    800028a8:	00090513          	mv	a0,s2
    800028ac:	98dff0ef          	jal	ra,80002238 <terminate>

00000000800028b0 <vm_boot>:
    800028b0:	f14027f3          	csrr	a5,mhartid
    800028b4:	18079463          	bnez	a5,80002a3c <vm_boot+0x18c>
    800028b8:	00006797          	auipc	a5,0x6
    800028bc:	74878793          	addi	a5,a5,1864 # 80009000 <begin_signature+0x2000>
    800028c0:	ed010113          	addi	sp,sp,-304
    800028c4:	00c7d793          	srli	a5,a5,0xc
    800028c8:	12813023          	sd	s0,288(sp)
    800028cc:	00007817          	auipc	a6,0x7
    800028d0:	73480813          	addi	a6,a6,1844 # 8000a000 <begin_signature+0x3000>
    800028d4:	00050413          	mv	s0,a0
    800028d8:	00a79793          	slli	a5,a5,0xa
    800028dc:	00005517          	auipc	a0,0x5
    800028e0:	72450513          	addi	a0,a0,1828 # 80008000 <begin_signature+0x1000>
    800028e4:	12113423          	sd	ra,296(sp)
    800028e8:	00c55693          	srli	a3,a0,0xc
    800028ec:	00c85713          	srli	a4,a6,0xc
    800028f0:	0017e793          	ori	a5,a5,1
    800028f4:	00004897          	auipc	a7,0x4
    800028f8:	70c88893          	addi	a7,a7,1804 # 80007000 <begin_signature>
    800028fc:	fff00613          	li	a2,-1
    80002900:	fef53c23          	sd	a5,-8(a0)
    80002904:	00a69693          	slli	a3,a3,0xa
    80002908:	00a71713          	slli	a4,a4,0xa
    8000290c:	200007b7          	lui	a5,0x20000
    80002910:	0016e693          	ori	a3,a3,1
    80002914:	00176713          	ori	a4,a4,1
    80002918:	00c8d593          	srli	a1,a7,0xc
    8000291c:	03f61313          	slli	t1,a2,0x3f
    80002920:	0cf78793          	addi	a5,a5,207 # 200000cf <_start-0x5fffff31>
    80002924:	fef83c23          	sd	a5,-8(a6)
    80002928:	00d8b023          	sd	a3,0(a7)
    8000292c:	00e53023          	sd	a4,0(a0)
    80002930:	0065e7b3          	or	a5,a1,t1
    80002934:	18079073          	csrw	satp,a5
    80002938:	18002773          	csrr	a4,satp
    8000293c:	14e79863          	bne	a5,a4,80002a8c <vm_boot+0x1dc>
    80002940:	00b65613          	srli	a2,a2,0xb
    80002944:	01f00793          	li	a5,31
    80002948:	00000297          	auipc	t0,0x0
    8000294c:	01428293          	addi	t0,t0,20 # 8000295c <vm_boot+0xac>
    80002950:	305292f3          	csrrw	t0,mtvec,t0
    80002954:	3b061073          	csrw	pmpaddr0,a2
    80002958:	3a079073          	csrw	pmpcfg0,a5
    8000295c:	bff00813          	li	a6,-1025
    80002960:	01581813          	slli	a6,a6,0x15
    80002964:	ffffd797          	auipc	a5,0xffffd
    80002968:	7e078793          	addi	a5,a5,2016 # 80000144 <trap_entry>
    8000296c:	010787b3          	add	a5,a5,a6
    80002970:	10579073          	csrw	stvec,a5
    80002974:	340027f3          	csrr	a5,mscratch
    80002978:	010787b3          	add	a5,a5,a6
    8000297c:	14079073          	csrw	sscratch,a5
    80002980:	0000b7b7          	lui	a5,0xb
    80002984:	1007879b          	addiw	a5,a5,256
    80002988:	30279073          	csrw	medeleg,a5
    8000298c:	0001e7b7          	lui	a5,0x1e
    80002990:	30079073          	csrw	mstatus,a5
    80002994:	30405073          	csrwi	mie,0
    80002998:	00008717          	auipc	a4,0x8
    8000299c:	66870713          	addi	a4,a4,1640 # 8000b000 <freelist_nodes>
    800029a0:	010707b3          	add	a5,a4,a6
    800029a4:	3e078693          	addi	a3,a5,992 # 1e3e0 <_start-0x7ffe1c20>
    800029a8:	00009617          	auipc	a2,0x9
    800029ac:	e4f63023          	sd	a5,-448(a2) # 8000b7e8 <freelist_head>
    800029b0:	000808b7          	lui	a7,0x80
    800029b4:	00009797          	auipc	a5,0x9
    800029b8:	e2d7b623          	sd	a3,-468(a5) # 8000b7e0 <freelist_tail>
    800029bc:	00009317          	auipc	t1,0x9
    800029c0:	a3430313          	addi	t1,t1,-1484 # 8000b3f0 <user_mapping>
    800029c4:	03000793          	li	a5,48
    800029c8:	03f88893          	addi	a7,a7,63 # 8003f <_start-0x7ff7ffc1>
    800029cc:	01080813          	addi	a6,a6,16
    800029d0:	0017d613          	srli	a2,a5,0x1
    800029d4:	011786b3          	add	a3,a5,a7
    800029d8:	00f647b3          	xor	a5,a2,a5
    800029dc:	010705b3          	add	a1,a4,a6
    800029e0:	00c69693          	slli	a3,a3,0xc
    800029e4:	00579793          	slli	a5,a5,0x5
    800029e8:	00d73023          	sd	a3,0(a4)
    800029ec:	00b73423          	sd	a1,8(a4)
    800029f0:	0207f793          	andi	a5,a5,32
    800029f4:	01070713          	addi	a4,a4,16
    800029f8:	00f667b3          	or	a5,a2,a5
    800029fc:	fce31ae3          	bne	t1,a4,800029d0 <vm_boot+0x120>
    80002a00:	12000613          	li	a2,288
    80002a04:	00000593          	li	a1,0
    80002a08:	00010513          	mv	a0,sp
    80002a0c:	00009797          	auipc	a5,0x9
    80002a10:	9c07be23          	sd	zero,-1572(a5) # 8000b3e8 <freelist_nodes+0x3e8>
    80002a14:	e48ff0ef          	jal	ra,8000205c <memset>
    80002a18:	800007b7          	lui	a5,0x80000
    80002a1c:	00f40433          	add	s0,s0,a5
    80002a20:	00010513          	mv	a0,sp
    80002a24:	10813423          	sd	s0,264(sp)
    80002a28:	e94fd0ef          	jal	ra,800000bc <pop_tf>
    80002a2c:	12813083          	ld	ra,296(sp)
    80002a30:	12013403          	ld	s0,288(sp)
    80002a34:	13010113          	addi	sp,sp,304
    80002a38:	00008067          	ret
    80002a3c:	00100613          	li	a2,1
    80002a40:	0db157b7          	lui	a5,0xdb15
    80002a44:	000805b7          	lui	a1,0x80
    80002a48:	01f61513          	slli	a0,a2,0x1f
    80002a4c:	50c78793          	addi	a5,a5,1292 # db1550c <_start-0x724eaaf4>
    80002a50:	ffc58593          	addi	a1,a1,-4 # 7fffc <_start-0x7ff80004>
    80002a54:	03e61613          	slli	a2,a2,0x3e
    80002a58:	01c0006f          	j	80002a74 <vm_boot+0x1c4>
    80002a5c:	0007202f          	amoadd.w	zero,zero,(a4)
    80002a60:	0017d713          	srli	a4,a5,0x1
    80002a64:	00e7c7b3          	xor	a5,a5,a4
    80002a68:	03e79793          	slli	a5,a5,0x3e
    80002a6c:	00c7f7b3          	and	a5,a5,a2
    80002a70:	00e7e7b3          	or	a5,a5,a4
    80002a74:	00b7f733          	and	a4,a5,a1
    80002a78:	0017f693          	andi	a3,a5,1
    80002a7c:	00a70733          	add	a4,a4,a0
    80002a80:	fc069ee3          	bnez	a3,80002a5c <vm_boot+0x1ac>
    80002a84:	00072003          	lw	zero,0(a4)
    80002a88:	fd9ff06f          	j	80002a60 <vm_boot+0x1b0>
    80002a8c:	10100793          	li	a5,257
    80002a90:	04100613          	li	a2,65
    80002a94:	00003697          	auipc	a3,0x3
    80002a98:	71468693          	addi	a3,a3,1812 # 800061a8 <pass+0xecc>
    80002a9c:	ffffe717          	auipc	a4,0xffffe
    80002aa0:	56470713          	addi	a4,a4,1380 # 80001000 <tohost>
    80002aa4:	03079793          	slli	a5,a5,0x30
    80002aa8:	00073503          	ld	a0,0(a4)
    80002aac:	00168693          	addi	a3,a3,1
    80002ab0:	00f665b3          	or	a1,a2,a5
    80002ab4:	00050a63          	beqz	a0,80002ac8 <vm_boot+0x218>
    80002ab8:	ffffe617          	auipc	a2,0xffffe
    80002abc:	58063423          	sd	zero,1416(a2) # 80001040 <fromhost>
    80002ac0:	00073603          	ld	a2,0(a4)
    80002ac4:	fe061ae3          	bnez	a2,80002ab8 <vm_boot+0x208>
    80002ac8:	0006c603          	lbu	a2,0(a3)
    80002acc:	00b73023          	sd	a1,0(a4)
    80002ad0:	fc061ce3          	bnez	a2,80002aa8 <vm_boot+0x1f8>
    80002ad4:	00300513          	li	a0,3
    80002ad8:	f60ff0ef          	jal	ra,80002238 <terminate>
    80002adc:	0000                	unimp
    80002ade:	0000                	unimp
    80002ae0:	0000                	unimp
    80002ae2:	0000                	unimp
    80002ae4:	0000                	unimp
    80002ae6:	0000                	unimp
    80002ae8:	0000                	unimp
    80002aea:	0000                	unimp
    80002aec:	0000                	unimp
    80002aee:	0000                	unimp
    80002af0:	0000                	unimp
    80002af2:	0000                	unimp
    80002af4:	0000                	unimp
    80002af6:	0000                	unimp
    80002af8:	0000                	unimp
    80002afa:	0000                	unimp
    80002afc:	0000                	unimp
    80002afe:	0000                	unimp
    80002b00:	0000                	unimp
    80002b02:	0000                	unimp
    80002b04:	0000                	unimp
    80002b06:	0000                	unimp
    80002b08:	0000                	unimp
    80002b0a:	0000                	unimp
    80002b0c:	0000                	unimp
    80002b0e:	0000                	unimp
    80002b10:	0000                	unimp
    80002b12:	0000                	unimp
    80002b14:	0000                	unimp
    80002b16:	0000                	unimp
    80002b18:	0000                	unimp
    80002b1a:	0000                	unimp
    80002b1c:	0000                	unimp
    80002b1e:	0000                	unimp
    80002b20:	0000                	unimp
    80002b22:	0000                	unimp
    80002b24:	0000                	unimp
    80002b26:	0000                	unimp
    80002b28:	0000                	unimp
    80002b2a:	0000                	unimp
    80002b2c:	0000                	unimp
    80002b2e:	0000                	unimp
    80002b30:	0000                	unimp
    80002b32:	0000                	unimp
    80002b34:	0000                	unimp
    80002b36:	0000                	unimp
    80002b38:	0000                	unimp
    80002b3a:	0000                	unimp
    80002b3c:	0000                	unimp
    80002b3e:	0000                	unimp
    80002b40:	0000                	unimp
    80002b42:	0000                	unimp
    80002b44:	0000                	unimp
    80002b46:	0000                	unimp
    80002b48:	0000                	unimp
    80002b4a:	0000                	unimp
    80002b4c:	0000                	unimp
    80002b4e:	0000                	unimp
    80002b50:	0000                	unimp
    80002b52:	0000                	unimp
    80002b54:	0000                	unimp
    80002b56:	0000                	unimp
    80002b58:	0000                	unimp
    80002b5a:	0000                	unimp
    80002b5c:	0000                	unimp
    80002b5e:	0000                	unimp
    80002b60:	0000                	unimp
    80002b62:	0000                	unimp
    80002b64:	0000                	unimp
    80002b66:	0000                	unimp
    80002b68:	0000                	unimp
    80002b6a:	0000                	unimp
    80002b6c:	0000                	unimp
    80002b6e:	0000                	unimp
    80002b70:	0000                	unimp
    80002b72:	0000                	unimp
    80002b74:	0000                	unimp
    80002b76:	0000                	unimp
    80002b78:	0000                	unimp
    80002b7a:	0000                	unimp
    80002b7c:	0000                	unimp
    80002b7e:	0000                	unimp
    80002b80:	0000                	unimp
    80002b82:	0000                	unimp
    80002b84:	0000                	unimp
    80002b86:	0000                	unimp
    80002b88:	0000                	unimp
    80002b8a:	0000                	unimp
    80002b8c:	0000                	unimp
    80002b8e:	0000                	unimp
    80002b90:	0000                	unimp
    80002b92:	0000                	unimp
    80002b94:	0000                	unimp
    80002b96:	0000                	unimp
    80002b98:	0000                	unimp
    80002b9a:	0000                	unimp
    80002b9c:	0000                	unimp
    80002b9e:	0000                	unimp
    80002ba0:	0000                	unimp
    80002ba2:	0000                	unimp
    80002ba4:	0000                	unimp
    80002ba6:	0000                	unimp
    80002ba8:	0000                	unimp
    80002baa:	0000                	unimp
    80002bac:	0000                	unimp
    80002bae:	0000                	unimp
    80002bb0:	0000                	unimp
    80002bb2:	0000                	unimp
    80002bb4:	0000                	unimp
    80002bb6:	0000                	unimp
    80002bb8:	0000                	unimp
    80002bba:	0000                	unimp
    80002bbc:	0000                	unimp
    80002bbe:	0000                	unimp
    80002bc0:	0000                	unimp
    80002bc2:	0000                	unimp
    80002bc4:	0000                	unimp
    80002bc6:	0000                	unimp
    80002bc8:	0000                	unimp
    80002bca:	0000                	unimp
    80002bcc:	0000                	unimp
    80002bce:	0000                	unimp
    80002bd0:	0000                	unimp
    80002bd2:	0000                	unimp
    80002bd4:	0000                	unimp
    80002bd6:	0000                	unimp
    80002bd8:	0000                	unimp
    80002bda:	0000                	unimp
    80002bdc:	0000                	unimp
    80002bde:	0000                	unimp
    80002be0:	0000                	unimp
    80002be2:	0000                	unimp
    80002be4:	0000                	unimp
    80002be6:	0000                	unimp
    80002be8:	0000                	unimp
    80002bea:	0000                	unimp
    80002bec:	0000                	unimp
    80002bee:	0000                	unimp
    80002bf0:	0000                	unimp
    80002bf2:	0000                	unimp
    80002bf4:	0000                	unimp
    80002bf6:	0000                	unimp
    80002bf8:	0000                	unimp
    80002bfa:	0000                	unimp
    80002bfc:	0000                	unimp
    80002bfe:	0000                	unimp
    80002c00:	0000                	unimp
    80002c02:	0000                	unimp
    80002c04:	0000                	unimp
    80002c06:	0000                	unimp
    80002c08:	0000                	unimp
    80002c0a:	0000                	unimp
    80002c0c:	0000                	unimp
    80002c0e:	0000                	unimp
    80002c10:	0000                	unimp
    80002c12:	0000                	unimp
    80002c14:	0000                	unimp
    80002c16:	0000                	unimp
    80002c18:	0000                	unimp
    80002c1a:	0000                	unimp
    80002c1c:	0000                	unimp
    80002c1e:	0000                	unimp
    80002c20:	0000                	unimp
    80002c22:	0000                	unimp
    80002c24:	0000                	unimp
    80002c26:	0000                	unimp
    80002c28:	0000                	unimp
    80002c2a:	0000                	unimp
    80002c2c:	0000                	unimp
    80002c2e:	0000                	unimp
    80002c30:	0000                	unimp
    80002c32:	0000                	unimp
    80002c34:	0000                	unimp
    80002c36:	0000                	unimp
    80002c38:	0000                	unimp
    80002c3a:	0000                	unimp
    80002c3c:	0000                	unimp
    80002c3e:	0000                	unimp
    80002c40:	0000                	unimp
    80002c42:	0000                	unimp
    80002c44:	0000                	unimp
    80002c46:	0000                	unimp
    80002c48:	0000                	unimp
    80002c4a:	0000                	unimp
    80002c4c:	0000                	unimp
    80002c4e:	0000                	unimp
    80002c50:	0000                	unimp
    80002c52:	0000                	unimp
    80002c54:	0000                	unimp
    80002c56:	0000                	unimp
    80002c58:	0000                	unimp
    80002c5a:	0000                	unimp
    80002c5c:	0000                	unimp
    80002c5e:	0000                	unimp
    80002c60:	0000                	unimp
    80002c62:	0000                	unimp
    80002c64:	0000                	unimp
    80002c66:	0000                	unimp
    80002c68:	0000                	unimp
    80002c6a:	0000                	unimp
    80002c6c:	0000                	unimp
    80002c6e:	0000                	unimp
    80002c70:	0000                	unimp
    80002c72:	0000                	unimp
    80002c74:	0000                	unimp
    80002c76:	0000                	unimp
    80002c78:	0000                	unimp
    80002c7a:	0000                	unimp
    80002c7c:	0000                	unimp
    80002c7e:	0000                	unimp
    80002c80:	0000                	unimp
    80002c82:	0000                	unimp
    80002c84:	0000                	unimp
    80002c86:	0000                	unimp
    80002c88:	0000                	unimp
    80002c8a:	0000                	unimp
    80002c8c:	0000                	unimp
    80002c8e:	0000                	unimp
    80002c90:	0000                	unimp
    80002c92:	0000                	unimp
    80002c94:	0000                	unimp
    80002c96:	0000                	unimp
    80002c98:	0000                	unimp
    80002c9a:	0000                	unimp
    80002c9c:	0000                	unimp
    80002c9e:	0000                	unimp
    80002ca0:	0000                	unimp
    80002ca2:	0000                	unimp
    80002ca4:	0000                	unimp
    80002ca6:	0000                	unimp
    80002ca8:	0000                	unimp
    80002caa:	0000                	unimp
    80002cac:	0000                	unimp
    80002cae:	0000                	unimp
    80002cb0:	0000                	unimp
    80002cb2:	0000                	unimp
    80002cb4:	0000                	unimp
    80002cb6:	0000                	unimp
    80002cb8:	0000                	unimp
    80002cba:	0000                	unimp
    80002cbc:	0000                	unimp
    80002cbe:	0000                	unimp
    80002cc0:	0000                	unimp
    80002cc2:	0000                	unimp
    80002cc4:	0000                	unimp
    80002cc6:	0000                	unimp
    80002cc8:	0000                	unimp
    80002cca:	0000                	unimp
    80002ccc:	0000                	unimp
    80002cce:	0000                	unimp
    80002cd0:	0000                	unimp
    80002cd2:	0000                	unimp
    80002cd4:	0000                	unimp
    80002cd6:	0000                	unimp
    80002cd8:	0000                	unimp
    80002cda:	0000                	unimp
    80002cdc:	0000                	unimp
    80002cde:	0000                	unimp
    80002ce0:	0000                	unimp
    80002ce2:	0000                	unimp
    80002ce4:	0000                	unimp
    80002ce6:	0000                	unimp
    80002ce8:	0000                	unimp
    80002cea:	0000                	unimp
    80002cec:	0000                	unimp
    80002cee:	0000                	unimp
    80002cf0:	0000                	unimp
    80002cf2:	0000                	unimp
    80002cf4:	0000                	unimp
    80002cf6:	0000                	unimp
    80002cf8:	0000                	unimp
    80002cfa:	0000                	unimp
    80002cfc:	0000                	unimp
    80002cfe:	0000                	unimp
    80002d00:	0000                	unimp
    80002d02:	0000                	unimp
    80002d04:	0000                	unimp
    80002d06:	0000                	unimp
    80002d08:	0000                	unimp
    80002d0a:	0000                	unimp
    80002d0c:	0000                	unimp
    80002d0e:	0000                	unimp
    80002d10:	0000                	unimp
    80002d12:	0000                	unimp
    80002d14:	0000                	unimp
    80002d16:	0000                	unimp
    80002d18:	0000                	unimp
    80002d1a:	0000                	unimp
    80002d1c:	0000                	unimp
    80002d1e:	0000                	unimp
    80002d20:	0000                	unimp
    80002d22:	0000                	unimp
    80002d24:	0000                	unimp
    80002d26:	0000                	unimp
    80002d28:	0000                	unimp
    80002d2a:	0000                	unimp
    80002d2c:	0000                	unimp
    80002d2e:	0000                	unimp
    80002d30:	0000                	unimp
    80002d32:	0000                	unimp
    80002d34:	0000                	unimp
    80002d36:	0000                	unimp
    80002d38:	0000                	unimp
    80002d3a:	0000                	unimp
    80002d3c:	0000                	unimp
    80002d3e:	0000                	unimp
    80002d40:	0000                	unimp
    80002d42:	0000                	unimp
    80002d44:	0000                	unimp
    80002d46:	0000                	unimp
    80002d48:	0000                	unimp
    80002d4a:	0000                	unimp
    80002d4c:	0000                	unimp
    80002d4e:	0000                	unimp
    80002d50:	0000                	unimp
    80002d52:	0000                	unimp
    80002d54:	0000                	unimp
    80002d56:	0000                	unimp
    80002d58:	0000                	unimp
    80002d5a:	0000                	unimp
    80002d5c:	0000                	unimp
    80002d5e:	0000                	unimp
    80002d60:	0000                	unimp
    80002d62:	0000                	unimp
    80002d64:	0000                	unimp
    80002d66:	0000                	unimp
    80002d68:	0000                	unimp
    80002d6a:	0000                	unimp
    80002d6c:	0000                	unimp
    80002d6e:	0000                	unimp
    80002d70:	0000                	unimp
    80002d72:	0000                	unimp
    80002d74:	0000                	unimp
    80002d76:	0000                	unimp
    80002d78:	0000                	unimp
    80002d7a:	0000                	unimp
    80002d7c:	0000                	unimp
    80002d7e:	0000                	unimp
    80002d80:	0000                	unimp
    80002d82:	0000                	unimp
    80002d84:	0000                	unimp
    80002d86:	0000                	unimp
    80002d88:	0000                	unimp
    80002d8a:	0000                	unimp
    80002d8c:	0000                	unimp
    80002d8e:	0000                	unimp
    80002d90:	0000                	unimp
    80002d92:	0000                	unimp
    80002d94:	0000                	unimp
    80002d96:	0000                	unimp
    80002d98:	0000                	unimp
    80002d9a:	0000                	unimp
    80002d9c:	0000                	unimp
    80002d9e:	0000                	unimp
    80002da0:	0000                	unimp
    80002da2:	0000                	unimp
    80002da4:	0000                	unimp
    80002da6:	0000                	unimp
    80002da8:	0000                	unimp
    80002daa:	0000                	unimp
    80002dac:	0000                	unimp
    80002dae:	0000                	unimp
    80002db0:	0000                	unimp
    80002db2:	0000                	unimp
    80002db4:	0000                	unimp
    80002db6:	0000                	unimp
    80002db8:	0000                	unimp
    80002dba:	0000                	unimp
    80002dbc:	0000                	unimp
    80002dbe:	0000                	unimp
    80002dc0:	0000                	unimp
    80002dc2:	0000                	unimp
    80002dc4:	0000                	unimp
    80002dc6:	0000                	unimp
    80002dc8:	0000                	unimp
    80002dca:	0000                	unimp
    80002dcc:	0000                	unimp
    80002dce:	0000                	unimp
    80002dd0:	0000                	unimp
    80002dd2:	0000                	unimp
    80002dd4:	0000                	unimp
    80002dd6:	0000                	unimp
    80002dd8:	0000                	unimp
    80002dda:	0000                	unimp
    80002ddc:	0000                	unimp
    80002dde:	0000                	unimp
    80002de0:	0000                	unimp
    80002de2:	0000                	unimp
    80002de4:	0000                	unimp
    80002de6:	0000                	unimp
    80002de8:	0000                	unimp
    80002dea:	0000                	unimp
    80002dec:	0000                	unimp
    80002dee:	0000                	unimp
    80002df0:	0000                	unimp
    80002df2:	0000                	unimp
    80002df4:	0000                	unimp
    80002df6:	0000                	unimp
    80002df8:	0000                	unimp
    80002dfa:	0000                	unimp
    80002dfc:	0000                	unimp
    80002dfe:	0000                	unimp
    80002e00:	0000                	unimp
    80002e02:	0000                	unimp
    80002e04:	0000                	unimp
    80002e06:	0000                	unimp
    80002e08:	0000                	unimp
    80002e0a:	0000                	unimp
    80002e0c:	0000                	unimp
    80002e0e:	0000                	unimp
    80002e10:	0000                	unimp
    80002e12:	0000                	unimp
    80002e14:	0000                	unimp
    80002e16:	0000                	unimp
    80002e18:	0000                	unimp
    80002e1a:	0000                	unimp
    80002e1c:	0000                	unimp
    80002e1e:	0000                	unimp
    80002e20:	0000                	unimp
    80002e22:	0000                	unimp
    80002e24:	0000                	unimp
    80002e26:	0000                	unimp
    80002e28:	0000                	unimp
    80002e2a:	0000                	unimp
    80002e2c:	0000                	unimp
    80002e2e:	0000                	unimp
    80002e30:	0000                	unimp
    80002e32:	0000                	unimp
    80002e34:	0000                	unimp
    80002e36:	0000                	unimp
    80002e38:	0000                	unimp
    80002e3a:	0000                	unimp
    80002e3c:	0000                	unimp
    80002e3e:	0000                	unimp
    80002e40:	0000                	unimp
    80002e42:	0000                	unimp
    80002e44:	0000                	unimp
    80002e46:	0000                	unimp
    80002e48:	0000                	unimp
    80002e4a:	0000                	unimp
    80002e4c:	0000                	unimp
    80002e4e:	0000                	unimp
    80002e50:	0000                	unimp
    80002e52:	0000                	unimp
    80002e54:	0000                	unimp
    80002e56:	0000                	unimp
    80002e58:	0000                	unimp
    80002e5a:	0000                	unimp
    80002e5c:	0000                	unimp
    80002e5e:	0000                	unimp
    80002e60:	0000                	unimp
    80002e62:	0000                	unimp
    80002e64:	0000                	unimp
    80002e66:	0000                	unimp
    80002e68:	0000                	unimp
    80002e6a:	0000                	unimp
    80002e6c:	0000                	unimp
    80002e6e:	0000                	unimp
    80002e70:	0000                	unimp
    80002e72:	0000                	unimp
    80002e74:	0000                	unimp
    80002e76:	0000                	unimp
    80002e78:	0000                	unimp
    80002e7a:	0000                	unimp
    80002e7c:	0000                	unimp
    80002e7e:	0000                	unimp
    80002e80:	0000                	unimp
    80002e82:	0000                	unimp
    80002e84:	0000                	unimp
    80002e86:	0000                	unimp
    80002e88:	0000                	unimp
    80002e8a:	0000                	unimp
    80002e8c:	0000                	unimp
    80002e8e:	0000                	unimp
    80002e90:	0000                	unimp
    80002e92:	0000                	unimp
    80002e94:	0000                	unimp
    80002e96:	0000                	unimp
    80002e98:	0000                	unimp
    80002e9a:	0000                	unimp
    80002e9c:	0000                	unimp
    80002e9e:	0000                	unimp
    80002ea0:	0000                	unimp
    80002ea2:	0000                	unimp
    80002ea4:	0000                	unimp
    80002ea6:	0000                	unimp
    80002ea8:	0000                	unimp
    80002eaa:	0000                	unimp
    80002eac:	0000                	unimp
    80002eae:	0000                	unimp
    80002eb0:	0000                	unimp
    80002eb2:	0000                	unimp
    80002eb4:	0000                	unimp
    80002eb6:	0000                	unimp
    80002eb8:	0000                	unimp
    80002eba:	0000                	unimp
    80002ebc:	0000                	unimp
    80002ebe:	0000                	unimp
    80002ec0:	0000                	unimp
    80002ec2:	0000                	unimp
    80002ec4:	0000                	unimp
    80002ec6:	0000                	unimp
    80002ec8:	0000                	unimp
    80002eca:	0000                	unimp
    80002ecc:	0000                	unimp
    80002ece:	0000                	unimp
    80002ed0:	0000                	unimp
    80002ed2:	0000                	unimp
    80002ed4:	0000                	unimp
    80002ed6:	0000                	unimp
    80002ed8:	0000                	unimp
    80002eda:	0000                	unimp
    80002edc:	0000                	unimp
    80002ede:	0000                	unimp
    80002ee0:	0000                	unimp
    80002ee2:	0000                	unimp
    80002ee4:	0000                	unimp
    80002ee6:	0000                	unimp
    80002ee8:	0000                	unimp
    80002eea:	0000                	unimp
    80002eec:	0000                	unimp
    80002eee:	0000                	unimp
    80002ef0:	0000                	unimp
    80002ef2:	0000                	unimp
    80002ef4:	0000                	unimp
    80002ef6:	0000                	unimp
    80002ef8:	0000                	unimp
    80002efa:	0000                	unimp
    80002efc:	0000                	unimp
    80002efe:	0000                	unimp
    80002f00:	0000                	unimp
    80002f02:	0000                	unimp
    80002f04:	0000                	unimp
    80002f06:	0000                	unimp
    80002f08:	0000                	unimp
    80002f0a:	0000                	unimp
    80002f0c:	0000                	unimp
    80002f0e:	0000                	unimp
    80002f10:	0000                	unimp
    80002f12:	0000                	unimp
    80002f14:	0000                	unimp
    80002f16:	0000                	unimp
    80002f18:	0000                	unimp
    80002f1a:	0000                	unimp
    80002f1c:	0000                	unimp
    80002f1e:	0000                	unimp
    80002f20:	0000                	unimp
    80002f22:	0000                	unimp
    80002f24:	0000                	unimp
    80002f26:	0000                	unimp
    80002f28:	0000                	unimp
    80002f2a:	0000                	unimp
    80002f2c:	0000                	unimp
    80002f2e:	0000                	unimp
    80002f30:	0000                	unimp
    80002f32:	0000                	unimp
    80002f34:	0000                	unimp
    80002f36:	0000                	unimp
    80002f38:	0000                	unimp
    80002f3a:	0000                	unimp
    80002f3c:	0000                	unimp
    80002f3e:	0000                	unimp
    80002f40:	0000                	unimp
    80002f42:	0000                	unimp
    80002f44:	0000                	unimp
    80002f46:	0000                	unimp
    80002f48:	0000                	unimp
    80002f4a:	0000                	unimp
    80002f4c:	0000                	unimp
    80002f4e:	0000                	unimp
    80002f50:	0000                	unimp
    80002f52:	0000                	unimp
    80002f54:	0000                	unimp
    80002f56:	0000                	unimp
    80002f58:	0000                	unimp
    80002f5a:	0000                	unimp
    80002f5c:	0000                	unimp
    80002f5e:	0000                	unimp
    80002f60:	0000                	unimp
    80002f62:	0000                	unimp
    80002f64:	0000                	unimp
    80002f66:	0000                	unimp
    80002f68:	0000                	unimp
    80002f6a:	0000                	unimp
    80002f6c:	0000                	unimp
    80002f6e:	0000                	unimp
    80002f70:	0000                	unimp
    80002f72:	0000                	unimp
    80002f74:	0000                	unimp
    80002f76:	0000                	unimp
    80002f78:	0000                	unimp
    80002f7a:	0000                	unimp
    80002f7c:	0000                	unimp
    80002f7e:	0000                	unimp
    80002f80:	0000                	unimp
    80002f82:	0000                	unimp
    80002f84:	0000                	unimp
    80002f86:	0000                	unimp
    80002f88:	0000                	unimp
    80002f8a:	0000                	unimp
    80002f8c:	0000                	unimp
    80002f8e:	0000                	unimp
    80002f90:	0000                	unimp
    80002f92:	0000                	unimp
    80002f94:	0000                	unimp
    80002f96:	0000                	unimp
    80002f98:	0000                	unimp
    80002f9a:	0000                	unimp
    80002f9c:	0000                	unimp
    80002f9e:	0000                	unimp
    80002fa0:	0000                	unimp
    80002fa2:	0000                	unimp
    80002fa4:	0000                	unimp
    80002fa6:	0000                	unimp
    80002fa8:	0000                	unimp
    80002faa:	0000                	unimp
    80002fac:	0000                	unimp
    80002fae:	0000                	unimp
    80002fb0:	0000                	unimp
    80002fb2:	0000                	unimp
    80002fb4:	0000                	unimp
    80002fb6:	0000                	unimp
    80002fb8:	0000                	unimp
    80002fba:	0000                	unimp
    80002fbc:	0000                	unimp
    80002fbe:	0000                	unimp
    80002fc0:	0000                	unimp
    80002fc2:	0000                	unimp
    80002fc4:	0000                	unimp
    80002fc6:	0000                	unimp
    80002fc8:	0000                	unimp
    80002fca:	0000                	unimp
    80002fcc:	0000                	unimp
    80002fce:	0000                	unimp
    80002fd0:	0000                	unimp
    80002fd2:	0000                	unimp
    80002fd4:	0000                	unimp
    80002fd6:	0000                	unimp
    80002fd8:	0000                	unimp
    80002fda:	0000                	unimp
    80002fdc:	0000                	unimp
    80002fde:	0000                	unimp
    80002fe0:	0000                	unimp
    80002fe2:	0000                	unimp
    80002fe4:	0000                	unimp
    80002fe6:	0000                	unimp
    80002fe8:	0000                	unimp
    80002fea:	0000                	unimp
    80002fec:	0000                	unimp
    80002fee:	0000                	unimp
    80002ff0:	0000                	unimp
    80002ff2:	0000                	unimp
    80002ff4:	0000                	unimp
    80002ff6:	0000                	unimp
    80002ff8:	0000                	unimp
    80002ffa:	0000                	unimp
    80002ffc:	0000                	unimp
    80002ffe:	0000                	unimp

0000000080003000 <extra_boot>:
    80003000:	00008067          	ret

0000000080003004 <userstart>:
    80003004:	00200193          	li	gp,2
    80003008:	29a00593          	li	a1,666

000000008000300c <test_2>:
    8000300c:	7f30106f          	j	80004ffe <data+0x1fee>

0000000080003010 <data>:
    80003010:	3210                	fld	fa2,32(a2)
    80003012:	7654                	ld	a3,168(a2)
    80003014:	ba98                	fsd	fa4,48(a3)
    80003016:	fedc                	sd	a5,184(a3)
    80003018:	3210                	fld	fa2,32(a2)
    8000301a:	7654                	ld	a3,168(a2)
    8000301c:	ba98                	fsd	fa4,48(a3)
    8000301e:	fedc                	sd	a5,184(a3)
    80003020:	00000013          	nop
    80003024:	00000013          	nop
    80003028:	00000013          	nop
    8000302c:	00000013          	nop
    80003030:	00000013          	nop
    80003034:	00000013          	nop
    80003038:	00000013          	nop
    8000303c:	00000013          	nop
    80003040:	00000013          	nop
    80003044:	00000013          	nop
    80003048:	00000013          	nop
    8000304c:	00000013          	nop
    80003050:	00000013          	nop
    80003054:	00000013          	nop
    80003058:	00000013          	nop
    8000305c:	00000013          	nop
    80003060:	00000013          	nop
    80003064:	00000013          	nop
    80003068:	00000013          	nop
    8000306c:	00000013          	nop
    80003070:	00000013          	nop
    80003074:	00000013          	nop
    80003078:	00000013          	nop
    8000307c:	00000013          	nop
    80003080:	00000013          	nop
    80003084:	00000013          	nop
    80003088:	00000013          	nop
    8000308c:	00000013          	nop
    80003090:	00000013          	nop
    80003094:	00000013          	nop
    80003098:	00000013          	nop
    8000309c:	00000013          	nop
    800030a0:	00000013          	nop
    800030a4:	00000013          	nop
    800030a8:	00000013          	nop
    800030ac:	00000013          	nop
    800030b0:	00000013          	nop
    800030b4:	00000013          	nop
    800030b8:	00000013          	nop
    800030bc:	00000013          	nop
    800030c0:	00000013          	nop
    800030c4:	00000013          	nop
    800030c8:	00000013          	nop
    800030cc:	00000013          	nop
    800030d0:	00000013          	nop
    800030d4:	00000013          	nop
    800030d8:	00000013          	nop
    800030dc:	00000013          	nop
    800030e0:	00000013          	nop
    800030e4:	00000013          	nop
    800030e8:	00000013          	nop
    800030ec:	00000013          	nop
    800030f0:	00000013          	nop
    800030f4:	00000013          	nop
    800030f8:	00000013          	nop
    800030fc:	00000013          	nop
    80003100:	00000013          	nop
    80003104:	00000013          	nop
    80003108:	00000013          	nop
    8000310c:	00000013          	nop
    80003110:	00000013          	nop
    80003114:	00000013          	nop
    80003118:	00000013          	nop
    8000311c:	00000013          	nop
    80003120:	00000013          	nop
    80003124:	00000013          	nop
    80003128:	00000013          	nop
    8000312c:	00000013          	nop
    80003130:	00000013          	nop
    80003134:	00000013          	nop
    80003138:	00000013          	nop
    8000313c:	00000013          	nop
    80003140:	00000013          	nop
    80003144:	00000013          	nop
    80003148:	00000013          	nop
    8000314c:	00000013          	nop
    80003150:	00000013          	nop
    80003154:	00000013          	nop
    80003158:	00000013          	nop
    8000315c:	00000013          	nop
    80003160:	00000013          	nop
    80003164:	00000013          	nop
    80003168:	00000013          	nop
    8000316c:	00000013          	nop
    80003170:	00000013          	nop
    80003174:	00000013          	nop
    80003178:	00000013          	nop
    8000317c:	00000013          	nop
    80003180:	00000013          	nop
    80003184:	00000013          	nop
    80003188:	00000013          	nop
    8000318c:	00000013          	nop
    80003190:	00000013          	nop
    80003194:	00000013          	nop
    80003198:	00000013          	nop
    8000319c:	00000013          	nop
    800031a0:	00000013          	nop
    800031a4:	00000013          	nop
    800031a8:	00000013          	nop
    800031ac:	00000013          	nop
    800031b0:	00000013          	nop
    800031b4:	00000013          	nop
    800031b8:	00000013          	nop
    800031bc:	00000013          	nop
    800031c0:	00000013          	nop
    800031c4:	00000013          	nop
    800031c8:	00000013          	nop
    800031cc:	00000013          	nop
    800031d0:	00000013          	nop
    800031d4:	00000013          	nop
    800031d8:	00000013          	nop
    800031dc:	00000013          	nop
    800031e0:	00000013          	nop
    800031e4:	00000013          	nop
    800031e8:	00000013          	nop
    800031ec:	00000013          	nop
    800031f0:	00000013          	nop
    800031f4:	00000013          	nop
    800031f8:	00000013          	nop
    800031fc:	00000013          	nop
    80003200:	00000013          	nop
    80003204:	00000013          	nop
    80003208:	00000013          	nop
    8000320c:	00000013          	nop
    80003210:	00000013          	nop
    80003214:	00000013          	nop
    80003218:	00000013          	nop
    8000321c:	00000013          	nop
    80003220:	00000013          	nop
    80003224:	00000013          	nop
    80003228:	00000013          	nop
    8000322c:	00000013          	nop
    80003230:	00000013          	nop
    80003234:	00000013          	nop
    80003238:	00000013          	nop
    8000323c:	00000013          	nop
    80003240:	00000013          	nop
    80003244:	00000013          	nop
    80003248:	00000013          	nop
    8000324c:	00000013          	nop
    80003250:	00000013          	nop
    80003254:	00000013          	nop
    80003258:	00000013          	nop
    8000325c:	00000013          	nop
    80003260:	00000013          	nop
    80003264:	00000013          	nop
    80003268:	00000013          	nop
    8000326c:	00000013          	nop
    80003270:	00000013          	nop
    80003274:	00000013          	nop
    80003278:	00000013          	nop
    8000327c:	00000013          	nop
    80003280:	00000013          	nop
    80003284:	00000013          	nop
    80003288:	00000013          	nop
    8000328c:	00000013          	nop
    80003290:	00000013          	nop
    80003294:	00000013          	nop
    80003298:	00000013          	nop
    8000329c:	00000013          	nop
    800032a0:	00000013          	nop
    800032a4:	00000013          	nop
    800032a8:	00000013          	nop
    800032ac:	00000013          	nop
    800032b0:	00000013          	nop
    800032b4:	00000013          	nop
    800032b8:	00000013          	nop
    800032bc:	00000013          	nop
    800032c0:	00000013          	nop
    800032c4:	00000013          	nop
    800032c8:	00000013          	nop
    800032cc:	00000013          	nop
    800032d0:	00000013          	nop
    800032d4:	00000013          	nop
    800032d8:	00000013          	nop
    800032dc:	00000013          	nop
    800032e0:	00000013          	nop
    800032e4:	00000013          	nop
    800032e8:	00000013          	nop
    800032ec:	00000013          	nop
    800032f0:	00000013          	nop
    800032f4:	00000013          	nop
    800032f8:	00000013          	nop
    800032fc:	00000013          	nop
    80003300:	00000013          	nop
    80003304:	00000013          	nop
    80003308:	00000013          	nop
    8000330c:	00000013          	nop
    80003310:	00000013          	nop
    80003314:	00000013          	nop
    80003318:	00000013          	nop
    8000331c:	00000013          	nop
    80003320:	00000013          	nop
    80003324:	00000013          	nop
    80003328:	00000013          	nop
    8000332c:	00000013          	nop
    80003330:	00000013          	nop
    80003334:	00000013          	nop
    80003338:	00000013          	nop
    8000333c:	00000013          	nop
    80003340:	00000013          	nop
    80003344:	00000013          	nop
    80003348:	00000013          	nop
    8000334c:	00000013          	nop
    80003350:	00000013          	nop
    80003354:	00000013          	nop
    80003358:	00000013          	nop
    8000335c:	00000013          	nop
    80003360:	00000013          	nop
    80003364:	00000013          	nop
    80003368:	00000013          	nop
    8000336c:	00000013          	nop
    80003370:	00000013          	nop
    80003374:	00000013          	nop
    80003378:	00000013          	nop
    8000337c:	00000013          	nop
    80003380:	00000013          	nop
    80003384:	00000013          	nop
    80003388:	00000013          	nop
    8000338c:	00000013          	nop
    80003390:	00000013          	nop
    80003394:	00000013          	nop
    80003398:	00000013          	nop
    8000339c:	00000013          	nop
    800033a0:	00000013          	nop
    800033a4:	00000013          	nop
    800033a8:	00000013          	nop
    800033ac:	00000013          	nop
    800033b0:	00000013          	nop
    800033b4:	00000013          	nop
    800033b8:	00000013          	nop
    800033bc:	00000013          	nop
    800033c0:	00000013          	nop
    800033c4:	00000013          	nop
    800033c8:	00000013          	nop
    800033cc:	00000013          	nop
    800033d0:	00000013          	nop
    800033d4:	00000013          	nop
    800033d8:	00000013          	nop
    800033dc:	00000013          	nop
    800033e0:	00000013          	nop
    800033e4:	00000013          	nop
    800033e8:	00000013          	nop
    800033ec:	00000013          	nop
    800033f0:	00000013          	nop
    800033f4:	00000013          	nop
    800033f8:	00000013          	nop
    800033fc:	00000013          	nop
    80003400:	00000013          	nop
    80003404:	00000013          	nop
    80003408:	00000013          	nop
    8000340c:	00000013          	nop
    80003410:	00000013          	nop
    80003414:	00000013          	nop
    80003418:	00000013          	nop
    8000341c:	00000013          	nop
    80003420:	00000013          	nop
    80003424:	00000013          	nop
    80003428:	00000013          	nop
    8000342c:	00000013          	nop
    80003430:	00000013          	nop
    80003434:	00000013          	nop
    80003438:	00000013          	nop
    8000343c:	00000013          	nop
    80003440:	00000013          	nop
    80003444:	00000013          	nop
    80003448:	00000013          	nop
    8000344c:	00000013          	nop
    80003450:	00000013          	nop
    80003454:	00000013          	nop
    80003458:	00000013          	nop
    8000345c:	00000013          	nop
    80003460:	00000013          	nop
    80003464:	00000013          	nop
    80003468:	00000013          	nop
    8000346c:	00000013          	nop
    80003470:	00000013          	nop
    80003474:	00000013          	nop
    80003478:	00000013          	nop
    8000347c:	00000013          	nop
    80003480:	00000013          	nop
    80003484:	00000013          	nop
    80003488:	00000013          	nop
    8000348c:	00000013          	nop
    80003490:	00000013          	nop
    80003494:	00000013          	nop
    80003498:	00000013          	nop
    8000349c:	00000013          	nop
    800034a0:	00000013          	nop
    800034a4:	00000013          	nop
    800034a8:	00000013          	nop
    800034ac:	00000013          	nop
    800034b0:	00000013          	nop
    800034b4:	00000013          	nop
    800034b8:	00000013          	nop
    800034bc:	00000013          	nop
    800034c0:	00000013          	nop
    800034c4:	00000013          	nop
    800034c8:	00000013          	nop
    800034cc:	00000013          	nop
    800034d0:	00000013          	nop
    800034d4:	00000013          	nop
    800034d8:	00000013          	nop
    800034dc:	00000013          	nop
    800034e0:	00000013          	nop
    800034e4:	00000013          	nop
    800034e8:	00000013          	nop
    800034ec:	00000013          	nop
    800034f0:	00000013          	nop
    800034f4:	00000013          	nop
    800034f8:	00000013          	nop
    800034fc:	00000013          	nop
    80003500:	00000013          	nop
    80003504:	00000013          	nop
    80003508:	00000013          	nop
    8000350c:	00000013          	nop
    80003510:	00000013          	nop
    80003514:	00000013          	nop
    80003518:	00000013          	nop
    8000351c:	00000013          	nop
    80003520:	00000013          	nop
    80003524:	00000013          	nop
    80003528:	00000013          	nop
    8000352c:	00000013          	nop
    80003530:	00000013          	nop
    80003534:	00000013          	nop
    80003538:	00000013          	nop
    8000353c:	00000013          	nop
    80003540:	00000013          	nop
    80003544:	00000013          	nop
    80003548:	00000013          	nop
    8000354c:	00000013          	nop
    80003550:	00000013          	nop
    80003554:	00000013          	nop
    80003558:	00000013          	nop
    8000355c:	00000013          	nop
    80003560:	00000013          	nop
    80003564:	00000013          	nop
    80003568:	00000013          	nop
    8000356c:	00000013          	nop
    80003570:	00000013          	nop
    80003574:	00000013          	nop
    80003578:	00000013          	nop
    8000357c:	00000013          	nop
    80003580:	00000013          	nop
    80003584:	00000013          	nop
    80003588:	00000013          	nop
    8000358c:	00000013          	nop
    80003590:	00000013          	nop
    80003594:	00000013          	nop
    80003598:	00000013          	nop
    8000359c:	00000013          	nop
    800035a0:	00000013          	nop
    800035a4:	00000013          	nop
    800035a8:	00000013          	nop
    800035ac:	00000013          	nop
    800035b0:	00000013          	nop
    800035b4:	00000013          	nop
    800035b8:	00000013          	nop
    800035bc:	00000013          	nop
    800035c0:	00000013          	nop
    800035c4:	00000013          	nop
    800035c8:	00000013          	nop
    800035cc:	00000013          	nop
    800035d0:	00000013          	nop
    800035d4:	00000013          	nop
    800035d8:	00000013          	nop
    800035dc:	00000013          	nop
    800035e0:	00000013          	nop
    800035e4:	00000013          	nop
    800035e8:	00000013          	nop
    800035ec:	00000013          	nop
    800035f0:	00000013          	nop
    800035f4:	00000013          	nop
    800035f8:	00000013          	nop
    800035fc:	00000013          	nop
    80003600:	00000013          	nop
    80003604:	00000013          	nop
    80003608:	00000013          	nop
    8000360c:	00000013          	nop
    80003610:	00000013          	nop
    80003614:	00000013          	nop
    80003618:	00000013          	nop
    8000361c:	00000013          	nop
    80003620:	00000013          	nop
    80003624:	00000013          	nop
    80003628:	00000013          	nop
    8000362c:	00000013          	nop
    80003630:	00000013          	nop
    80003634:	00000013          	nop
    80003638:	00000013          	nop
    8000363c:	00000013          	nop
    80003640:	00000013          	nop
    80003644:	00000013          	nop
    80003648:	00000013          	nop
    8000364c:	00000013          	nop
    80003650:	00000013          	nop
    80003654:	00000013          	nop
    80003658:	00000013          	nop
    8000365c:	00000013          	nop
    80003660:	00000013          	nop
    80003664:	00000013          	nop
    80003668:	00000013          	nop
    8000366c:	00000013          	nop
    80003670:	00000013          	nop
    80003674:	00000013          	nop
    80003678:	00000013          	nop
    8000367c:	00000013          	nop
    80003680:	00000013          	nop
    80003684:	00000013          	nop
    80003688:	00000013          	nop
    8000368c:	00000013          	nop
    80003690:	00000013          	nop
    80003694:	00000013          	nop
    80003698:	00000013          	nop
    8000369c:	00000013          	nop
    800036a0:	00000013          	nop
    800036a4:	00000013          	nop
    800036a8:	00000013          	nop
    800036ac:	00000013          	nop
    800036b0:	00000013          	nop
    800036b4:	00000013          	nop
    800036b8:	00000013          	nop
    800036bc:	00000013          	nop
    800036c0:	00000013          	nop
    800036c4:	00000013          	nop
    800036c8:	00000013          	nop
    800036cc:	00000013          	nop
    800036d0:	00000013          	nop
    800036d4:	00000013          	nop
    800036d8:	00000013          	nop
    800036dc:	00000013          	nop
    800036e0:	00000013          	nop
    800036e4:	00000013          	nop
    800036e8:	00000013          	nop
    800036ec:	00000013          	nop
    800036f0:	00000013          	nop
    800036f4:	00000013          	nop
    800036f8:	00000013          	nop
    800036fc:	00000013          	nop
    80003700:	00000013          	nop
    80003704:	00000013          	nop
    80003708:	00000013          	nop
    8000370c:	00000013          	nop
    80003710:	00000013          	nop
    80003714:	00000013          	nop
    80003718:	00000013          	nop
    8000371c:	00000013          	nop
    80003720:	00000013          	nop
    80003724:	00000013          	nop
    80003728:	00000013          	nop
    8000372c:	00000013          	nop
    80003730:	00000013          	nop
    80003734:	00000013          	nop
    80003738:	00000013          	nop
    8000373c:	00000013          	nop
    80003740:	00000013          	nop
    80003744:	00000013          	nop
    80003748:	00000013          	nop
    8000374c:	00000013          	nop
    80003750:	00000013          	nop
    80003754:	00000013          	nop
    80003758:	00000013          	nop
    8000375c:	00000013          	nop
    80003760:	00000013          	nop
    80003764:	00000013          	nop
    80003768:	00000013          	nop
    8000376c:	00000013          	nop
    80003770:	00000013          	nop
    80003774:	00000013          	nop
    80003778:	00000013          	nop
    8000377c:	00000013          	nop
    80003780:	00000013          	nop
    80003784:	00000013          	nop
    80003788:	00000013          	nop
    8000378c:	00000013          	nop
    80003790:	00000013          	nop
    80003794:	00000013          	nop
    80003798:	00000013          	nop
    8000379c:	00000013          	nop
    800037a0:	00000013          	nop
    800037a4:	00000013          	nop
    800037a8:	00000013          	nop
    800037ac:	00000013          	nop
    800037b0:	00000013          	nop
    800037b4:	00000013          	nop
    800037b8:	00000013          	nop
    800037bc:	00000013          	nop
    800037c0:	00000013          	nop
    800037c4:	00000013          	nop
    800037c8:	00000013          	nop
    800037cc:	00000013          	nop
    800037d0:	00000013          	nop
    800037d4:	00000013          	nop
    800037d8:	00000013          	nop
    800037dc:	00000013          	nop
    800037e0:	00000013          	nop
    800037e4:	00000013          	nop
    800037e8:	00000013          	nop
    800037ec:	00000013          	nop
    800037f0:	00000013          	nop
    800037f4:	00000013          	nop
    800037f8:	00000013          	nop
    800037fc:	00000013          	nop
    80003800:	00000013          	nop
    80003804:	00000013          	nop
    80003808:	00000013          	nop
    8000380c:	00000013          	nop
    80003810:	00000013          	nop
    80003814:	00000013          	nop
    80003818:	00000013          	nop
    8000381c:	00000013          	nop
    80003820:	00000013          	nop
    80003824:	00000013          	nop
    80003828:	00000013          	nop
    8000382c:	00000013          	nop
    80003830:	00000013          	nop
    80003834:	00000013          	nop
    80003838:	00000013          	nop
    8000383c:	00000013          	nop
    80003840:	00000013          	nop
    80003844:	00000013          	nop
    80003848:	00000013          	nop
    8000384c:	00000013          	nop
    80003850:	00000013          	nop
    80003854:	00000013          	nop
    80003858:	00000013          	nop
    8000385c:	00000013          	nop
    80003860:	00000013          	nop
    80003864:	00000013          	nop
    80003868:	00000013          	nop
    8000386c:	00000013          	nop
    80003870:	00000013          	nop
    80003874:	00000013          	nop
    80003878:	00000013          	nop
    8000387c:	00000013          	nop
    80003880:	00000013          	nop
    80003884:	00000013          	nop
    80003888:	00000013          	nop
    8000388c:	00000013          	nop
    80003890:	00000013          	nop
    80003894:	00000013          	nop
    80003898:	00000013          	nop
    8000389c:	00000013          	nop
    800038a0:	00000013          	nop
    800038a4:	00000013          	nop
    800038a8:	00000013          	nop
    800038ac:	00000013          	nop
    800038b0:	00000013          	nop
    800038b4:	00000013          	nop
    800038b8:	00000013          	nop
    800038bc:	00000013          	nop
    800038c0:	00000013          	nop
    800038c4:	00000013          	nop
    800038c8:	00000013          	nop
    800038cc:	00000013          	nop
    800038d0:	00000013          	nop
    800038d4:	00000013          	nop
    800038d8:	00000013          	nop
    800038dc:	00000013          	nop
    800038e0:	00000013          	nop
    800038e4:	00000013          	nop
    800038e8:	00000013          	nop
    800038ec:	00000013          	nop
    800038f0:	00000013          	nop
    800038f4:	00000013          	nop
    800038f8:	00000013          	nop
    800038fc:	00000013          	nop
    80003900:	00000013          	nop
    80003904:	00000013          	nop
    80003908:	00000013          	nop
    8000390c:	00000013          	nop
    80003910:	00000013          	nop
    80003914:	00000013          	nop
    80003918:	00000013          	nop
    8000391c:	00000013          	nop
    80003920:	00000013          	nop
    80003924:	00000013          	nop
    80003928:	00000013          	nop
    8000392c:	00000013          	nop
    80003930:	00000013          	nop
    80003934:	00000013          	nop
    80003938:	00000013          	nop
    8000393c:	00000013          	nop
    80003940:	00000013          	nop
    80003944:	00000013          	nop
    80003948:	00000013          	nop
    8000394c:	00000013          	nop
    80003950:	00000013          	nop
    80003954:	00000013          	nop
    80003958:	00000013          	nop
    8000395c:	00000013          	nop
    80003960:	00000013          	nop
    80003964:	00000013          	nop
    80003968:	00000013          	nop
    8000396c:	00000013          	nop
    80003970:	00000013          	nop
    80003974:	00000013          	nop
    80003978:	00000013          	nop
    8000397c:	00000013          	nop
    80003980:	00000013          	nop
    80003984:	00000013          	nop
    80003988:	00000013          	nop
    8000398c:	00000013          	nop
    80003990:	00000013          	nop
    80003994:	00000013          	nop
    80003998:	00000013          	nop
    8000399c:	00000013          	nop
    800039a0:	00000013          	nop
    800039a4:	00000013          	nop
    800039a8:	00000013          	nop
    800039ac:	00000013          	nop
    800039b0:	00000013          	nop
    800039b4:	00000013          	nop
    800039b8:	00000013          	nop
    800039bc:	00000013          	nop
    800039c0:	00000013          	nop
    800039c4:	00000013          	nop
    800039c8:	00000013          	nop
    800039cc:	00000013          	nop
    800039d0:	00000013          	nop
    800039d4:	00000013          	nop
    800039d8:	00000013          	nop
    800039dc:	00000013          	nop
    800039e0:	00000013          	nop
    800039e4:	00000013          	nop
    800039e8:	00000013          	nop
    800039ec:	00000013          	nop
    800039f0:	00000013          	nop
    800039f4:	00000013          	nop
    800039f8:	00000013          	nop
    800039fc:	00000013          	nop
    80003a00:	00000013          	nop
    80003a04:	00000013          	nop
    80003a08:	00000013          	nop
    80003a0c:	00000013          	nop
    80003a10:	00000013          	nop
    80003a14:	00000013          	nop
    80003a18:	00000013          	nop
    80003a1c:	00000013          	nop
    80003a20:	00000013          	nop
    80003a24:	00000013          	nop
    80003a28:	00000013          	nop
    80003a2c:	00000013          	nop
    80003a30:	00000013          	nop
    80003a34:	00000013          	nop
    80003a38:	00000013          	nop
    80003a3c:	00000013          	nop
    80003a40:	00000013          	nop
    80003a44:	00000013          	nop
    80003a48:	00000013          	nop
    80003a4c:	00000013          	nop
    80003a50:	00000013          	nop
    80003a54:	00000013          	nop
    80003a58:	00000013          	nop
    80003a5c:	00000013          	nop
    80003a60:	00000013          	nop
    80003a64:	00000013          	nop
    80003a68:	00000013          	nop
    80003a6c:	00000013          	nop
    80003a70:	00000013          	nop
    80003a74:	00000013          	nop
    80003a78:	00000013          	nop
    80003a7c:	00000013          	nop
    80003a80:	00000013          	nop
    80003a84:	00000013          	nop
    80003a88:	00000013          	nop
    80003a8c:	00000013          	nop
    80003a90:	00000013          	nop
    80003a94:	00000013          	nop
    80003a98:	00000013          	nop
    80003a9c:	00000013          	nop
    80003aa0:	00000013          	nop
    80003aa4:	00000013          	nop
    80003aa8:	00000013          	nop
    80003aac:	00000013          	nop
    80003ab0:	00000013          	nop
    80003ab4:	00000013          	nop
    80003ab8:	00000013          	nop
    80003abc:	00000013          	nop
    80003ac0:	00000013          	nop
    80003ac4:	00000013          	nop
    80003ac8:	00000013          	nop
    80003acc:	00000013          	nop
    80003ad0:	00000013          	nop
    80003ad4:	00000013          	nop
    80003ad8:	00000013          	nop
    80003adc:	00000013          	nop
    80003ae0:	00000013          	nop
    80003ae4:	00000013          	nop
    80003ae8:	00000013          	nop
    80003aec:	00000013          	nop
    80003af0:	00000013          	nop
    80003af4:	00000013          	nop
    80003af8:	00000013          	nop
    80003afc:	00000013          	nop
    80003b00:	00000013          	nop
    80003b04:	00000013          	nop
    80003b08:	00000013          	nop
    80003b0c:	00000013          	nop
    80003b10:	00000013          	nop
    80003b14:	00000013          	nop
    80003b18:	00000013          	nop
    80003b1c:	00000013          	nop
    80003b20:	00000013          	nop
    80003b24:	00000013          	nop
    80003b28:	00000013          	nop
    80003b2c:	00000013          	nop
    80003b30:	00000013          	nop
    80003b34:	00000013          	nop
    80003b38:	00000013          	nop
    80003b3c:	00000013          	nop
    80003b40:	00000013          	nop
    80003b44:	00000013          	nop
    80003b48:	00000013          	nop
    80003b4c:	00000013          	nop
    80003b50:	00000013          	nop
    80003b54:	00000013          	nop
    80003b58:	00000013          	nop
    80003b5c:	00000013          	nop
    80003b60:	00000013          	nop
    80003b64:	00000013          	nop
    80003b68:	00000013          	nop
    80003b6c:	00000013          	nop
    80003b70:	00000013          	nop
    80003b74:	00000013          	nop
    80003b78:	00000013          	nop
    80003b7c:	00000013          	nop
    80003b80:	00000013          	nop
    80003b84:	00000013          	nop
    80003b88:	00000013          	nop
    80003b8c:	00000013          	nop
    80003b90:	00000013          	nop
    80003b94:	00000013          	nop
    80003b98:	00000013          	nop
    80003b9c:	00000013          	nop
    80003ba0:	00000013          	nop
    80003ba4:	00000013          	nop
    80003ba8:	00000013          	nop
    80003bac:	00000013          	nop
    80003bb0:	00000013          	nop
    80003bb4:	00000013          	nop
    80003bb8:	00000013          	nop
    80003bbc:	00000013          	nop
    80003bc0:	00000013          	nop
    80003bc4:	00000013          	nop
    80003bc8:	00000013          	nop
    80003bcc:	00000013          	nop
    80003bd0:	00000013          	nop
    80003bd4:	00000013          	nop
    80003bd8:	00000013          	nop
    80003bdc:	00000013          	nop
    80003be0:	00000013          	nop
    80003be4:	00000013          	nop
    80003be8:	00000013          	nop
    80003bec:	00000013          	nop
    80003bf0:	00000013          	nop
    80003bf4:	00000013          	nop
    80003bf8:	00000013          	nop
    80003bfc:	00000013          	nop
    80003c00:	00000013          	nop
    80003c04:	00000013          	nop
    80003c08:	00000013          	nop
    80003c0c:	00000013          	nop
    80003c10:	00000013          	nop
    80003c14:	00000013          	nop
    80003c18:	00000013          	nop
    80003c1c:	00000013          	nop
    80003c20:	00000013          	nop
    80003c24:	00000013          	nop
    80003c28:	00000013          	nop
    80003c2c:	00000013          	nop
    80003c30:	00000013          	nop
    80003c34:	00000013          	nop
    80003c38:	00000013          	nop
    80003c3c:	00000013          	nop
    80003c40:	00000013          	nop
    80003c44:	00000013          	nop
    80003c48:	00000013          	nop
    80003c4c:	00000013          	nop
    80003c50:	00000013          	nop
    80003c54:	00000013          	nop
    80003c58:	00000013          	nop
    80003c5c:	00000013          	nop
    80003c60:	00000013          	nop
    80003c64:	00000013          	nop
    80003c68:	00000013          	nop
    80003c6c:	00000013          	nop
    80003c70:	00000013          	nop
    80003c74:	00000013          	nop
    80003c78:	00000013          	nop
    80003c7c:	00000013          	nop
    80003c80:	00000013          	nop
    80003c84:	00000013          	nop
    80003c88:	00000013          	nop
    80003c8c:	00000013          	nop
    80003c90:	00000013          	nop
    80003c94:	00000013          	nop
    80003c98:	00000013          	nop
    80003c9c:	00000013          	nop
    80003ca0:	00000013          	nop
    80003ca4:	00000013          	nop
    80003ca8:	00000013          	nop
    80003cac:	00000013          	nop
    80003cb0:	00000013          	nop
    80003cb4:	00000013          	nop
    80003cb8:	00000013          	nop
    80003cbc:	00000013          	nop
    80003cc0:	00000013          	nop
    80003cc4:	00000013          	nop
    80003cc8:	00000013          	nop
    80003ccc:	00000013          	nop
    80003cd0:	00000013          	nop
    80003cd4:	00000013          	nop
    80003cd8:	00000013          	nop
    80003cdc:	00000013          	nop
    80003ce0:	00000013          	nop
    80003ce4:	00000013          	nop
    80003ce8:	00000013          	nop
    80003cec:	00000013          	nop
    80003cf0:	00000013          	nop
    80003cf4:	00000013          	nop
    80003cf8:	00000013          	nop
    80003cfc:	00000013          	nop
    80003d00:	00000013          	nop
    80003d04:	00000013          	nop
    80003d08:	00000013          	nop
    80003d0c:	00000013          	nop
    80003d10:	00000013          	nop
    80003d14:	00000013          	nop
    80003d18:	00000013          	nop
    80003d1c:	00000013          	nop
    80003d20:	00000013          	nop
    80003d24:	00000013          	nop
    80003d28:	00000013          	nop
    80003d2c:	00000013          	nop
    80003d30:	00000013          	nop
    80003d34:	00000013          	nop
    80003d38:	00000013          	nop
    80003d3c:	00000013          	nop
    80003d40:	00000013          	nop
    80003d44:	00000013          	nop
    80003d48:	00000013          	nop
    80003d4c:	00000013          	nop
    80003d50:	00000013          	nop
    80003d54:	00000013          	nop
    80003d58:	00000013          	nop
    80003d5c:	00000013          	nop
    80003d60:	00000013          	nop
    80003d64:	00000013          	nop
    80003d68:	00000013          	nop
    80003d6c:	00000013          	nop
    80003d70:	00000013          	nop
    80003d74:	00000013          	nop
    80003d78:	00000013          	nop
    80003d7c:	00000013          	nop
    80003d80:	00000013          	nop
    80003d84:	00000013          	nop
    80003d88:	00000013          	nop
    80003d8c:	00000013          	nop
    80003d90:	00000013          	nop
    80003d94:	00000013          	nop
    80003d98:	00000013          	nop
    80003d9c:	00000013          	nop
    80003da0:	00000013          	nop
    80003da4:	00000013          	nop
    80003da8:	00000013          	nop
    80003dac:	00000013          	nop
    80003db0:	00000013          	nop
    80003db4:	00000013          	nop
    80003db8:	00000013          	nop
    80003dbc:	00000013          	nop
    80003dc0:	00000013          	nop
    80003dc4:	00000013          	nop
    80003dc8:	00000013          	nop
    80003dcc:	00000013          	nop
    80003dd0:	00000013          	nop
    80003dd4:	00000013          	nop
    80003dd8:	00000013          	nop
    80003ddc:	00000013          	nop
    80003de0:	00000013          	nop
    80003de4:	00000013          	nop
    80003de8:	00000013          	nop
    80003dec:	00000013          	nop
    80003df0:	00000013          	nop
    80003df4:	00000013          	nop
    80003df8:	00000013          	nop
    80003dfc:	00000013          	nop
    80003e00:	00000013          	nop
    80003e04:	00000013          	nop
    80003e08:	00000013          	nop
    80003e0c:	00000013          	nop
    80003e10:	00000013          	nop
    80003e14:	00000013          	nop
    80003e18:	00000013          	nop
    80003e1c:	00000013          	nop
    80003e20:	00000013          	nop
    80003e24:	00000013          	nop
    80003e28:	00000013          	nop
    80003e2c:	00000013          	nop
    80003e30:	00000013          	nop
    80003e34:	00000013          	nop
    80003e38:	00000013          	nop
    80003e3c:	00000013          	nop
    80003e40:	00000013          	nop
    80003e44:	00000013          	nop
    80003e48:	00000013          	nop
    80003e4c:	00000013          	nop
    80003e50:	00000013          	nop
    80003e54:	00000013          	nop
    80003e58:	00000013          	nop
    80003e5c:	00000013          	nop
    80003e60:	00000013          	nop
    80003e64:	00000013          	nop
    80003e68:	00000013          	nop
    80003e6c:	00000013          	nop
    80003e70:	00000013          	nop
    80003e74:	00000013          	nop
    80003e78:	00000013          	nop
    80003e7c:	00000013          	nop
    80003e80:	00000013          	nop
    80003e84:	00000013          	nop
    80003e88:	00000013          	nop
    80003e8c:	00000013          	nop
    80003e90:	00000013          	nop
    80003e94:	00000013          	nop
    80003e98:	00000013          	nop
    80003e9c:	00000013          	nop
    80003ea0:	00000013          	nop
    80003ea4:	00000013          	nop
    80003ea8:	00000013          	nop
    80003eac:	00000013          	nop
    80003eb0:	00000013          	nop
    80003eb4:	00000013          	nop
    80003eb8:	00000013          	nop
    80003ebc:	00000013          	nop
    80003ec0:	00000013          	nop
    80003ec4:	00000013          	nop
    80003ec8:	00000013          	nop
    80003ecc:	00000013          	nop
    80003ed0:	00000013          	nop
    80003ed4:	00000013          	nop
    80003ed8:	00000013          	nop
    80003edc:	00000013          	nop
    80003ee0:	00000013          	nop
    80003ee4:	00000013          	nop
    80003ee8:	00000013          	nop
    80003eec:	00000013          	nop
    80003ef0:	00000013          	nop
    80003ef4:	00000013          	nop
    80003ef8:	00000013          	nop
    80003efc:	00000013          	nop
    80003f00:	00000013          	nop
    80003f04:	00000013          	nop
    80003f08:	00000013          	nop
    80003f0c:	00000013          	nop
    80003f10:	00000013          	nop
    80003f14:	00000013          	nop
    80003f18:	00000013          	nop
    80003f1c:	00000013          	nop
    80003f20:	00000013          	nop
    80003f24:	00000013          	nop
    80003f28:	00000013          	nop
    80003f2c:	00000013          	nop
    80003f30:	00000013          	nop
    80003f34:	00000013          	nop
    80003f38:	00000013          	nop
    80003f3c:	00000013          	nop
    80003f40:	00000013          	nop
    80003f44:	00000013          	nop
    80003f48:	00000013          	nop
    80003f4c:	00000013          	nop
    80003f50:	00000013          	nop
    80003f54:	00000013          	nop
    80003f58:	00000013          	nop
    80003f5c:	00000013          	nop
    80003f60:	00000013          	nop
    80003f64:	00000013          	nop
    80003f68:	00000013          	nop
    80003f6c:	00000013          	nop
    80003f70:	00000013          	nop
    80003f74:	00000013          	nop
    80003f78:	00000013          	nop
    80003f7c:	00000013          	nop
    80003f80:	00000013          	nop
    80003f84:	00000013          	nop
    80003f88:	00000013          	nop
    80003f8c:	00000013          	nop
    80003f90:	00000013          	nop
    80003f94:	00000013          	nop
    80003f98:	00000013          	nop
    80003f9c:	00000013          	nop
    80003fa0:	00000013          	nop
    80003fa4:	00000013          	nop
    80003fa8:	00000013          	nop
    80003fac:	00000013          	nop
    80003fb0:	00000013          	nop
    80003fb4:	00000013          	nop
    80003fb8:	00000013          	nop
    80003fbc:	00000013          	nop
    80003fc0:	00000013          	nop
    80003fc4:	00000013          	nop
    80003fc8:	00000013          	nop
    80003fcc:	00000013          	nop
    80003fd0:	00000013          	nop
    80003fd4:	00000013          	nop
    80003fd8:	00000013          	nop
    80003fdc:	00000013          	nop
    80003fe0:	00000013          	nop
    80003fe4:	00000013          	nop
    80003fe8:	00000013          	nop
    80003fec:	00000013          	nop
    80003ff0:	00000013          	nop
    80003ff4:	00000013          	nop
    80003ff8:	00000013          	nop
    80003ffc:	00000013          	nop
    80004000:	0000                	unimp
    80004002:	0000                	unimp
    80004004:	0000                	unimp
    80004006:	0000                	unimp
    80004008:	0000                	unimp
    8000400a:	0000                	unimp
    8000400c:	0000                	unimp
    8000400e:	0000                	unimp
    80004010:	0000                	unimp
    80004012:	0000                	unimp
    80004014:	0000                	unimp
    80004016:	0000                	unimp
    80004018:	0000                	unimp
    8000401a:	0000                	unimp
    8000401c:	0000                	unimp
    8000401e:	0000                	unimp
    80004020:	0000                	unimp
    80004022:	0000                	unimp
    80004024:	0000                	unimp
    80004026:	0000                	unimp
    80004028:	0000                	unimp
    8000402a:	0000                	unimp
    8000402c:	0000                	unimp
    8000402e:	0000                	unimp
    80004030:	0000                	unimp
    80004032:	0000                	unimp
    80004034:	0000                	unimp
    80004036:	0000                	unimp
    80004038:	0000                	unimp
    8000403a:	0000                	unimp
    8000403c:	0000                	unimp
    8000403e:	0000                	unimp
    80004040:	0000                	unimp
    80004042:	0000                	unimp
    80004044:	0000                	unimp
    80004046:	0000                	unimp
    80004048:	0000                	unimp
    8000404a:	0000                	unimp
    8000404c:	0000                	unimp
    8000404e:	0000                	unimp
    80004050:	0000                	unimp
    80004052:	0000                	unimp
    80004054:	0000                	unimp
    80004056:	0000                	unimp
    80004058:	0000                	unimp
    8000405a:	0000                	unimp
    8000405c:	0000                	unimp
    8000405e:	0000                	unimp
    80004060:	0000                	unimp
    80004062:	0000                	unimp
    80004064:	0000                	unimp
    80004066:	0000                	unimp
    80004068:	0000                	unimp
    8000406a:	0000                	unimp
    8000406c:	0000                	unimp
    8000406e:	0000                	unimp
    80004070:	0000                	unimp
    80004072:	0000                	unimp
    80004074:	0000                	unimp
    80004076:	0000                	unimp
    80004078:	0000                	unimp
    8000407a:	0000                	unimp
    8000407c:	0000                	unimp
    8000407e:	0000                	unimp
    80004080:	0000                	unimp
    80004082:	0000                	unimp
    80004084:	0000                	unimp
    80004086:	0000                	unimp
    80004088:	0000                	unimp
    8000408a:	0000                	unimp
    8000408c:	0000                	unimp
    8000408e:	0000                	unimp
    80004090:	0000                	unimp
    80004092:	0000                	unimp
    80004094:	0000                	unimp
    80004096:	0000                	unimp
    80004098:	0000                	unimp
    8000409a:	0000                	unimp
    8000409c:	0000                	unimp
    8000409e:	0000                	unimp
    800040a0:	0000                	unimp
    800040a2:	0000                	unimp
    800040a4:	0000                	unimp
    800040a6:	0000                	unimp
    800040a8:	0000                	unimp
    800040aa:	0000                	unimp
    800040ac:	0000                	unimp
    800040ae:	0000                	unimp
    800040b0:	0000                	unimp
    800040b2:	0000                	unimp
    800040b4:	0000                	unimp
    800040b6:	0000                	unimp
    800040b8:	0000                	unimp
    800040ba:	0000                	unimp
    800040bc:	0000                	unimp
    800040be:	0000                	unimp
    800040c0:	0000                	unimp
    800040c2:	0000                	unimp
    800040c4:	0000                	unimp
    800040c6:	0000                	unimp
    800040c8:	0000                	unimp
    800040ca:	0000                	unimp
    800040cc:	0000                	unimp
    800040ce:	0000                	unimp
    800040d0:	0000                	unimp
    800040d2:	0000                	unimp
    800040d4:	0000                	unimp
    800040d6:	0000                	unimp
    800040d8:	0000                	unimp
    800040da:	0000                	unimp
    800040dc:	0000                	unimp
    800040de:	0000                	unimp
    800040e0:	0000                	unimp
    800040e2:	0000                	unimp
    800040e4:	0000                	unimp
    800040e6:	0000                	unimp
    800040e8:	0000                	unimp
    800040ea:	0000                	unimp
    800040ec:	0000                	unimp
    800040ee:	0000                	unimp
    800040f0:	0000                	unimp
    800040f2:	0000                	unimp
    800040f4:	0000                	unimp
    800040f6:	0000                	unimp
    800040f8:	0000                	unimp
    800040fa:	0000                	unimp
    800040fc:	0000                	unimp
    800040fe:	0000                	unimp
    80004100:	0000                	unimp
    80004102:	0000                	unimp
    80004104:	0000                	unimp
    80004106:	0000                	unimp
    80004108:	0000                	unimp
    8000410a:	0000                	unimp
    8000410c:	0000                	unimp
    8000410e:	0000                	unimp
    80004110:	0000                	unimp
    80004112:	0000                	unimp
    80004114:	0000                	unimp
    80004116:	0000                	unimp
    80004118:	0000                	unimp
    8000411a:	0000                	unimp
    8000411c:	0000                	unimp
    8000411e:	0000                	unimp
    80004120:	0000                	unimp
    80004122:	0000                	unimp
    80004124:	0000                	unimp
    80004126:	0000                	unimp
    80004128:	0000                	unimp
    8000412a:	0000                	unimp
    8000412c:	0000                	unimp
    8000412e:	0000                	unimp
    80004130:	0000                	unimp
    80004132:	0000                	unimp
    80004134:	0000                	unimp
    80004136:	0000                	unimp
    80004138:	0000                	unimp
    8000413a:	0000                	unimp
    8000413c:	0000                	unimp
    8000413e:	0000                	unimp
    80004140:	0000                	unimp
    80004142:	0000                	unimp
    80004144:	0000                	unimp
    80004146:	0000                	unimp
    80004148:	0000                	unimp
    8000414a:	0000                	unimp
    8000414c:	0000                	unimp
    8000414e:	0000                	unimp
    80004150:	0000                	unimp
    80004152:	0000                	unimp
    80004154:	0000                	unimp
    80004156:	0000                	unimp
    80004158:	0000                	unimp
    8000415a:	0000                	unimp
    8000415c:	0000                	unimp
    8000415e:	0000                	unimp
    80004160:	0000                	unimp
    80004162:	0000                	unimp
    80004164:	0000                	unimp
    80004166:	0000                	unimp
    80004168:	0000                	unimp
    8000416a:	0000                	unimp
    8000416c:	0000                	unimp
    8000416e:	0000                	unimp
    80004170:	0000                	unimp
    80004172:	0000                	unimp
    80004174:	0000                	unimp
    80004176:	0000                	unimp
    80004178:	0000                	unimp
    8000417a:	0000                	unimp
    8000417c:	0000                	unimp
    8000417e:	0000                	unimp
    80004180:	0000                	unimp
    80004182:	0000                	unimp
    80004184:	0000                	unimp
    80004186:	0000                	unimp
    80004188:	0000                	unimp
    8000418a:	0000                	unimp
    8000418c:	0000                	unimp
    8000418e:	0000                	unimp
    80004190:	0000                	unimp
    80004192:	0000                	unimp
    80004194:	0000                	unimp
    80004196:	0000                	unimp
    80004198:	0000                	unimp
    8000419a:	0000                	unimp
    8000419c:	0000                	unimp
    8000419e:	0000                	unimp
    800041a0:	0000                	unimp
    800041a2:	0000                	unimp
    800041a4:	0000                	unimp
    800041a6:	0000                	unimp
    800041a8:	0000                	unimp
    800041aa:	0000                	unimp
    800041ac:	0000                	unimp
    800041ae:	0000                	unimp
    800041b0:	0000                	unimp
    800041b2:	0000                	unimp
    800041b4:	0000                	unimp
    800041b6:	0000                	unimp
    800041b8:	0000                	unimp
    800041ba:	0000                	unimp
    800041bc:	0000                	unimp
    800041be:	0000                	unimp
    800041c0:	0000                	unimp
    800041c2:	0000                	unimp
    800041c4:	0000                	unimp
    800041c6:	0000                	unimp
    800041c8:	0000                	unimp
    800041ca:	0000                	unimp
    800041cc:	0000                	unimp
    800041ce:	0000                	unimp
    800041d0:	0000                	unimp
    800041d2:	0000                	unimp
    800041d4:	0000                	unimp
    800041d6:	0000                	unimp
    800041d8:	0000                	unimp
    800041da:	0000                	unimp
    800041dc:	0000                	unimp
    800041de:	0000                	unimp
    800041e0:	0000                	unimp
    800041e2:	0000                	unimp
    800041e4:	0000                	unimp
    800041e6:	0000                	unimp
    800041e8:	0000                	unimp
    800041ea:	0000                	unimp
    800041ec:	0000                	unimp
    800041ee:	0000                	unimp
    800041f0:	0000                	unimp
    800041f2:	0000                	unimp
    800041f4:	0000                	unimp
    800041f6:	0000                	unimp
    800041f8:	0000                	unimp
    800041fa:	0000                	unimp
    800041fc:	0000                	unimp
    800041fe:	0000                	unimp
    80004200:	0000                	unimp
    80004202:	0000                	unimp
    80004204:	0000                	unimp
    80004206:	0000                	unimp
    80004208:	0000                	unimp
    8000420a:	0000                	unimp
    8000420c:	0000                	unimp
    8000420e:	0000                	unimp
    80004210:	0000                	unimp
    80004212:	0000                	unimp
    80004214:	0000                	unimp
    80004216:	0000                	unimp
    80004218:	0000                	unimp
    8000421a:	0000                	unimp
    8000421c:	0000                	unimp
    8000421e:	0000                	unimp
    80004220:	0000                	unimp
    80004222:	0000                	unimp
    80004224:	0000                	unimp
    80004226:	0000                	unimp
    80004228:	0000                	unimp
    8000422a:	0000                	unimp
    8000422c:	0000                	unimp
    8000422e:	0000                	unimp
    80004230:	0000                	unimp
    80004232:	0000                	unimp
    80004234:	0000                	unimp
    80004236:	0000                	unimp
    80004238:	0000                	unimp
    8000423a:	0000                	unimp
    8000423c:	0000                	unimp
    8000423e:	0000                	unimp
    80004240:	0000                	unimp
    80004242:	0000                	unimp
    80004244:	0000                	unimp
    80004246:	0000                	unimp
    80004248:	0000                	unimp
    8000424a:	0000                	unimp
    8000424c:	0000                	unimp
    8000424e:	0000                	unimp
    80004250:	0000                	unimp
    80004252:	0000                	unimp
    80004254:	0000                	unimp
    80004256:	0000                	unimp
    80004258:	0000                	unimp
    8000425a:	0000                	unimp
    8000425c:	0000                	unimp
    8000425e:	0000                	unimp
    80004260:	0000                	unimp
    80004262:	0000                	unimp
    80004264:	0000                	unimp
    80004266:	0000                	unimp
    80004268:	0000                	unimp
    8000426a:	0000                	unimp
    8000426c:	0000                	unimp
    8000426e:	0000                	unimp
    80004270:	0000                	unimp
    80004272:	0000                	unimp
    80004274:	0000                	unimp
    80004276:	0000                	unimp
    80004278:	0000                	unimp
    8000427a:	0000                	unimp
    8000427c:	0000                	unimp
    8000427e:	0000                	unimp
    80004280:	0000                	unimp
    80004282:	0000                	unimp
    80004284:	0000                	unimp
    80004286:	0000                	unimp
    80004288:	0000                	unimp
    8000428a:	0000                	unimp
    8000428c:	0000                	unimp
    8000428e:	0000                	unimp
    80004290:	0000                	unimp
    80004292:	0000                	unimp
    80004294:	0000                	unimp
    80004296:	0000                	unimp
    80004298:	0000                	unimp
    8000429a:	0000                	unimp
    8000429c:	0000                	unimp
    8000429e:	0000                	unimp
    800042a0:	0000                	unimp
    800042a2:	0000                	unimp
    800042a4:	0000                	unimp
    800042a6:	0000                	unimp
    800042a8:	0000                	unimp
    800042aa:	0000                	unimp
    800042ac:	0000                	unimp
    800042ae:	0000                	unimp
    800042b0:	0000                	unimp
    800042b2:	0000                	unimp
    800042b4:	0000                	unimp
    800042b6:	0000                	unimp
    800042b8:	0000                	unimp
    800042ba:	0000                	unimp
    800042bc:	0000                	unimp
    800042be:	0000                	unimp
    800042c0:	0000                	unimp
    800042c2:	0000                	unimp
    800042c4:	0000                	unimp
    800042c6:	0000                	unimp
    800042c8:	0000                	unimp
    800042ca:	0000                	unimp
    800042cc:	0000                	unimp
    800042ce:	0000                	unimp
    800042d0:	0000                	unimp
    800042d2:	0000                	unimp
    800042d4:	0000                	unimp
    800042d6:	0000                	unimp
    800042d8:	0000                	unimp
    800042da:	0000                	unimp
    800042dc:	0000                	unimp
    800042de:	0000                	unimp
    800042e0:	0000                	unimp
    800042e2:	0000                	unimp
    800042e4:	0000                	unimp
    800042e6:	0000                	unimp
    800042e8:	0000                	unimp
    800042ea:	0000                	unimp
    800042ec:	0000                	unimp
    800042ee:	0000                	unimp
    800042f0:	0000                	unimp
    800042f2:	0000                	unimp
    800042f4:	0000                	unimp
    800042f6:	0000                	unimp
    800042f8:	0000                	unimp
    800042fa:	0000                	unimp
    800042fc:	0000                	unimp
    800042fe:	0000                	unimp
    80004300:	0000                	unimp
    80004302:	0000                	unimp
    80004304:	0000                	unimp
    80004306:	0000                	unimp
    80004308:	0000                	unimp
    8000430a:	0000                	unimp
    8000430c:	0000                	unimp
    8000430e:	0000                	unimp
    80004310:	0000                	unimp
    80004312:	0000                	unimp
    80004314:	0000                	unimp
    80004316:	0000                	unimp
    80004318:	0000                	unimp
    8000431a:	0000                	unimp
    8000431c:	0000                	unimp
    8000431e:	0000                	unimp
    80004320:	0000                	unimp
    80004322:	0000                	unimp
    80004324:	0000                	unimp
    80004326:	0000                	unimp
    80004328:	0000                	unimp
    8000432a:	0000                	unimp
    8000432c:	0000                	unimp
    8000432e:	0000                	unimp
    80004330:	0000                	unimp
    80004332:	0000                	unimp
    80004334:	0000                	unimp
    80004336:	0000                	unimp
    80004338:	0000                	unimp
    8000433a:	0000                	unimp
    8000433c:	0000                	unimp
    8000433e:	0000                	unimp
    80004340:	0000                	unimp
    80004342:	0000                	unimp
    80004344:	0000                	unimp
    80004346:	0000                	unimp
    80004348:	0000                	unimp
    8000434a:	0000                	unimp
    8000434c:	0000                	unimp
    8000434e:	0000                	unimp
    80004350:	0000                	unimp
    80004352:	0000                	unimp
    80004354:	0000                	unimp
    80004356:	0000                	unimp
    80004358:	0000                	unimp
    8000435a:	0000                	unimp
    8000435c:	0000                	unimp
    8000435e:	0000                	unimp
    80004360:	0000                	unimp
    80004362:	0000                	unimp
    80004364:	0000                	unimp
    80004366:	0000                	unimp
    80004368:	0000                	unimp
    8000436a:	0000                	unimp
    8000436c:	0000                	unimp
    8000436e:	0000                	unimp
    80004370:	0000                	unimp
    80004372:	0000                	unimp
    80004374:	0000                	unimp
    80004376:	0000                	unimp
    80004378:	0000                	unimp
    8000437a:	0000                	unimp
    8000437c:	0000                	unimp
    8000437e:	0000                	unimp
    80004380:	0000                	unimp
    80004382:	0000                	unimp
    80004384:	0000                	unimp
    80004386:	0000                	unimp
    80004388:	0000                	unimp
    8000438a:	0000                	unimp
    8000438c:	0000                	unimp
    8000438e:	0000                	unimp
    80004390:	0000                	unimp
    80004392:	0000                	unimp
    80004394:	0000                	unimp
    80004396:	0000                	unimp
    80004398:	0000                	unimp
    8000439a:	0000                	unimp
    8000439c:	0000                	unimp
    8000439e:	0000                	unimp
    800043a0:	0000                	unimp
    800043a2:	0000                	unimp
    800043a4:	0000                	unimp
    800043a6:	0000                	unimp
    800043a8:	0000                	unimp
    800043aa:	0000                	unimp
    800043ac:	0000                	unimp
    800043ae:	0000                	unimp
    800043b0:	0000                	unimp
    800043b2:	0000                	unimp
    800043b4:	0000                	unimp
    800043b6:	0000                	unimp
    800043b8:	0000                	unimp
    800043ba:	0000                	unimp
    800043bc:	0000                	unimp
    800043be:	0000                	unimp
    800043c0:	0000                	unimp
    800043c2:	0000                	unimp
    800043c4:	0000                	unimp
    800043c6:	0000                	unimp
    800043c8:	0000                	unimp
    800043ca:	0000                	unimp
    800043cc:	0000                	unimp
    800043ce:	0000                	unimp
    800043d0:	0000                	unimp
    800043d2:	0000                	unimp
    800043d4:	0000                	unimp
    800043d6:	0000                	unimp
    800043d8:	0000                	unimp
    800043da:	0000                	unimp
    800043dc:	0000                	unimp
    800043de:	0000                	unimp
    800043e0:	0000                	unimp
    800043e2:	0000                	unimp
    800043e4:	0000                	unimp
    800043e6:	0000                	unimp
    800043e8:	0000                	unimp
    800043ea:	0000                	unimp
    800043ec:	0000                	unimp
    800043ee:	0000                	unimp
    800043f0:	0000                	unimp
    800043f2:	0000                	unimp
    800043f4:	0000                	unimp
    800043f6:	0000                	unimp
    800043f8:	0000                	unimp
    800043fa:	0000                	unimp
    800043fc:	0000                	unimp
    800043fe:	0000                	unimp
    80004400:	0000                	unimp
    80004402:	0000                	unimp
    80004404:	0000                	unimp
    80004406:	0000                	unimp
    80004408:	0000                	unimp
    8000440a:	0000                	unimp
    8000440c:	0000                	unimp
    8000440e:	0000                	unimp
    80004410:	0000                	unimp
    80004412:	0000                	unimp
    80004414:	0000                	unimp
    80004416:	0000                	unimp
    80004418:	0000                	unimp
    8000441a:	0000                	unimp
    8000441c:	0000                	unimp
    8000441e:	0000                	unimp
    80004420:	0000                	unimp
    80004422:	0000                	unimp
    80004424:	0000                	unimp
    80004426:	0000                	unimp
    80004428:	0000                	unimp
    8000442a:	0000                	unimp
    8000442c:	0000                	unimp
    8000442e:	0000                	unimp
    80004430:	0000                	unimp
    80004432:	0000                	unimp
    80004434:	0000                	unimp
    80004436:	0000                	unimp
    80004438:	0000                	unimp
    8000443a:	0000                	unimp
    8000443c:	0000                	unimp
    8000443e:	0000                	unimp
    80004440:	0000                	unimp
    80004442:	0000                	unimp
    80004444:	0000                	unimp
    80004446:	0000                	unimp
    80004448:	0000                	unimp
    8000444a:	0000                	unimp
    8000444c:	0000                	unimp
    8000444e:	0000                	unimp
    80004450:	0000                	unimp
    80004452:	0000                	unimp
    80004454:	0000                	unimp
    80004456:	0000                	unimp
    80004458:	0000                	unimp
    8000445a:	0000                	unimp
    8000445c:	0000                	unimp
    8000445e:	0000                	unimp
    80004460:	0000                	unimp
    80004462:	0000                	unimp
    80004464:	0000                	unimp
    80004466:	0000                	unimp
    80004468:	0000                	unimp
    8000446a:	0000                	unimp
    8000446c:	0000                	unimp
    8000446e:	0000                	unimp
    80004470:	0000                	unimp
    80004472:	0000                	unimp
    80004474:	0000                	unimp
    80004476:	0000                	unimp
    80004478:	0000                	unimp
    8000447a:	0000                	unimp
    8000447c:	0000                	unimp
    8000447e:	0000                	unimp
    80004480:	0000                	unimp
    80004482:	0000                	unimp
    80004484:	0000                	unimp
    80004486:	0000                	unimp
    80004488:	0000                	unimp
    8000448a:	0000                	unimp
    8000448c:	0000                	unimp
    8000448e:	0000                	unimp
    80004490:	0000                	unimp
    80004492:	0000                	unimp
    80004494:	0000                	unimp
    80004496:	0000                	unimp
    80004498:	0000                	unimp
    8000449a:	0000                	unimp
    8000449c:	0000                	unimp
    8000449e:	0000                	unimp
    800044a0:	0000                	unimp
    800044a2:	0000                	unimp
    800044a4:	0000                	unimp
    800044a6:	0000                	unimp
    800044a8:	0000                	unimp
    800044aa:	0000                	unimp
    800044ac:	0000                	unimp
    800044ae:	0000                	unimp
    800044b0:	0000                	unimp
    800044b2:	0000                	unimp
    800044b4:	0000                	unimp
    800044b6:	0000                	unimp
    800044b8:	0000                	unimp
    800044ba:	0000                	unimp
    800044bc:	0000                	unimp
    800044be:	0000                	unimp
    800044c0:	0000                	unimp
    800044c2:	0000                	unimp
    800044c4:	0000                	unimp
    800044c6:	0000                	unimp
    800044c8:	0000                	unimp
    800044ca:	0000                	unimp
    800044cc:	0000                	unimp
    800044ce:	0000                	unimp
    800044d0:	0000                	unimp
    800044d2:	0000                	unimp
    800044d4:	0000                	unimp
    800044d6:	0000                	unimp
    800044d8:	0000                	unimp
    800044da:	0000                	unimp
    800044dc:	0000                	unimp
    800044de:	0000                	unimp
    800044e0:	0000                	unimp
    800044e2:	0000                	unimp
    800044e4:	0000                	unimp
    800044e6:	0000                	unimp
    800044e8:	0000                	unimp
    800044ea:	0000                	unimp
    800044ec:	0000                	unimp
    800044ee:	0000                	unimp
    800044f0:	0000                	unimp
    800044f2:	0000                	unimp
    800044f4:	0000                	unimp
    800044f6:	0000                	unimp
    800044f8:	0000                	unimp
    800044fa:	0000                	unimp
    800044fc:	0000                	unimp
    800044fe:	0000                	unimp
    80004500:	0000                	unimp
    80004502:	0000                	unimp
    80004504:	0000                	unimp
    80004506:	0000                	unimp
    80004508:	0000                	unimp
    8000450a:	0000                	unimp
    8000450c:	0000                	unimp
    8000450e:	0000                	unimp
    80004510:	0000                	unimp
    80004512:	0000                	unimp
    80004514:	0000                	unimp
    80004516:	0000                	unimp
    80004518:	0000                	unimp
    8000451a:	0000                	unimp
    8000451c:	0000                	unimp
    8000451e:	0000                	unimp
    80004520:	0000                	unimp
    80004522:	0000                	unimp
    80004524:	0000                	unimp
    80004526:	0000                	unimp
    80004528:	0000                	unimp
    8000452a:	0000                	unimp
    8000452c:	0000                	unimp
    8000452e:	0000                	unimp
    80004530:	0000                	unimp
    80004532:	0000                	unimp
    80004534:	0000                	unimp
    80004536:	0000                	unimp
    80004538:	0000                	unimp
    8000453a:	0000                	unimp
    8000453c:	0000                	unimp
    8000453e:	0000                	unimp
    80004540:	0000                	unimp
    80004542:	0000                	unimp
    80004544:	0000                	unimp
    80004546:	0000                	unimp
    80004548:	0000                	unimp
    8000454a:	0000                	unimp
    8000454c:	0000                	unimp
    8000454e:	0000                	unimp
    80004550:	0000                	unimp
    80004552:	0000                	unimp
    80004554:	0000                	unimp
    80004556:	0000                	unimp
    80004558:	0000                	unimp
    8000455a:	0000                	unimp
    8000455c:	0000                	unimp
    8000455e:	0000                	unimp
    80004560:	0000                	unimp
    80004562:	0000                	unimp
    80004564:	0000                	unimp
    80004566:	0000                	unimp
    80004568:	0000                	unimp
    8000456a:	0000                	unimp
    8000456c:	0000                	unimp
    8000456e:	0000                	unimp
    80004570:	0000                	unimp
    80004572:	0000                	unimp
    80004574:	0000                	unimp
    80004576:	0000                	unimp
    80004578:	0000                	unimp
    8000457a:	0000                	unimp
    8000457c:	0000                	unimp
    8000457e:	0000                	unimp
    80004580:	0000                	unimp
    80004582:	0000                	unimp
    80004584:	0000                	unimp
    80004586:	0000                	unimp
    80004588:	0000                	unimp
    8000458a:	0000                	unimp
    8000458c:	0000                	unimp
    8000458e:	0000                	unimp
    80004590:	0000                	unimp
    80004592:	0000                	unimp
    80004594:	0000                	unimp
    80004596:	0000                	unimp
    80004598:	0000                	unimp
    8000459a:	0000                	unimp
    8000459c:	0000                	unimp
    8000459e:	0000                	unimp
    800045a0:	0000                	unimp
    800045a2:	0000                	unimp
    800045a4:	0000                	unimp
    800045a6:	0000                	unimp
    800045a8:	0000                	unimp
    800045aa:	0000                	unimp
    800045ac:	0000                	unimp
    800045ae:	0000                	unimp
    800045b0:	0000                	unimp
    800045b2:	0000                	unimp
    800045b4:	0000                	unimp
    800045b6:	0000                	unimp
    800045b8:	0000                	unimp
    800045ba:	0000                	unimp
    800045bc:	0000                	unimp
    800045be:	0000                	unimp
    800045c0:	0000                	unimp
    800045c2:	0000                	unimp
    800045c4:	0000                	unimp
    800045c6:	0000                	unimp
    800045c8:	0000                	unimp
    800045ca:	0000                	unimp
    800045cc:	0000                	unimp
    800045ce:	0000                	unimp
    800045d0:	0000                	unimp
    800045d2:	0000                	unimp
    800045d4:	0000                	unimp
    800045d6:	0000                	unimp
    800045d8:	0000                	unimp
    800045da:	0000                	unimp
    800045dc:	0000                	unimp
    800045de:	0000                	unimp
    800045e0:	0000                	unimp
    800045e2:	0000                	unimp
    800045e4:	0000                	unimp
    800045e6:	0000                	unimp
    800045e8:	0000                	unimp
    800045ea:	0000                	unimp
    800045ec:	0000                	unimp
    800045ee:	0000                	unimp
    800045f0:	0000                	unimp
    800045f2:	0000                	unimp
    800045f4:	0000                	unimp
    800045f6:	0000                	unimp
    800045f8:	0000                	unimp
    800045fa:	0000                	unimp
    800045fc:	0000                	unimp
    800045fe:	0000                	unimp
    80004600:	0000                	unimp
    80004602:	0000                	unimp
    80004604:	0000                	unimp
    80004606:	0000                	unimp
    80004608:	0000                	unimp
    8000460a:	0000                	unimp
    8000460c:	0000                	unimp
    8000460e:	0000                	unimp
    80004610:	0000                	unimp
    80004612:	0000                	unimp
    80004614:	0000                	unimp
    80004616:	0000                	unimp
    80004618:	0000                	unimp
    8000461a:	0000                	unimp
    8000461c:	0000                	unimp
    8000461e:	0000                	unimp
    80004620:	0000                	unimp
    80004622:	0000                	unimp
    80004624:	0000                	unimp
    80004626:	0000                	unimp
    80004628:	0000                	unimp
    8000462a:	0000                	unimp
    8000462c:	0000                	unimp
    8000462e:	0000                	unimp
    80004630:	0000                	unimp
    80004632:	0000                	unimp
    80004634:	0000                	unimp
    80004636:	0000                	unimp
    80004638:	0000                	unimp
    8000463a:	0000                	unimp
    8000463c:	0000                	unimp
    8000463e:	0000                	unimp
    80004640:	0000                	unimp
    80004642:	0000                	unimp
    80004644:	0000                	unimp
    80004646:	0000                	unimp
    80004648:	0000                	unimp
    8000464a:	0000                	unimp
    8000464c:	0000                	unimp
    8000464e:	0000                	unimp
    80004650:	0000                	unimp
    80004652:	0000                	unimp
    80004654:	0000                	unimp
    80004656:	0000                	unimp
    80004658:	0000                	unimp
    8000465a:	0000                	unimp
    8000465c:	0000                	unimp
    8000465e:	0000                	unimp
    80004660:	0000                	unimp
    80004662:	0000                	unimp
    80004664:	0000                	unimp
    80004666:	0000                	unimp
    80004668:	0000                	unimp
    8000466a:	0000                	unimp
    8000466c:	0000                	unimp
    8000466e:	0000                	unimp
    80004670:	0000                	unimp
    80004672:	0000                	unimp
    80004674:	0000                	unimp
    80004676:	0000                	unimp
    80004678:	0000                	unimp
    8000467a:	0000                	unimp
    8000467c:	0000                	unimp
    8000467e:	0000                	unimp
    80004680:	0000                	unimp
    80004682:	0000                	unimp
    80004684:	0000                	unimp
    80004686:	0000                	unimp
    80004688:	0000                	unimp
    8000468a:	0000                	unimp
    8000468c:	0000                	unimp
    8000468e:	0000                	unimp
    80004690:	0000                	unimp
    80004692:	0000                	unimp
    80004694:	0000                	unimp
    80004696:	0000                	unimp
    80004698:	0000                	unimp
    8000469a:	0000                	unimp
    8000469c:	0000                	unimp
    8000469e:	0000                	unimp
    800046a0:	0000                	unimp
    800046a2:	0000                	unimp
    800046a4:	0000                	unimp
    800046a6:	0000                	unimp
    800046a8:	0000                	unimp
    800046aa:	0000                	unimp
    800046ac:	0000                	unimp
    800046ae:	0000                	unimp
    800046b0:	0000                	unimp
    800046b2:	0000                	unimp
    800046b4:	0000                	unimp
    800046b6:	0000                	unimp
    800046b8:	0000                	unimp
    800046ba:	0000                	unimp
    800046bc:	0000                	unimp
    800046be:	0000                	unimp
    800046c0:	0000                	unimp
    800046c2:	0000                	unimp
    800046c4:	0000                	unimp
    800046c6:	0000                	unimp
    800046c8:	0000                	unimp
    800046ca:	0000                	unimp
    800046cc:	0000                	unimp
    800046ce:	0000                	unimp
    800046d0:	0000                	unimp
    800046d2:	0000                	unimp
    800046d4:	0000                	unimp
    800046d6:	0000                	unimp
    800046d8:	0000                	unimp
    800046da:	0000                	unimp
    800046dc:	0000                	unimp
    800046de:	0000                	unimp
    800046e0:	0000                	unimp
    800046e2:	0000                	unimp
    800046e4:	0000                	unimp
    800046e6:	0000                	unimp
    800046e8:	0000                	unimp
    800046ea:	0000                	unimp
    800046ec:	0000                	unimp
    800046ee:	0000                	unimp
    800046f0:	0000                	unimp
    800046f2:	0000                	unimp
    800046f4:	0000                	unimp
    800046f6:	0000                	unimp
    800046f8:	0000                	unimp
    800046fa:	0000                	unimp
    800046fc:	0000                	unimp
    800046fe:	0000                	unimp
    80004700:	0000                	unimp
    80004702:	0000                	unimp
    80004704:	0000                	unimp
    80004706:	0000                	unimp
    80004708:	0000                	unimp
    8000470a:	0000                	unimp
    8000470c:	0000                	unimp
    8000470e:	0000                	unimp
    80004710:	0000                	unimp
    80004712:	0000                	unimp
    80004714:	0000                	unimp
    80004716:	0000                	unimp
    80004718:	0000                	unimp
    8000471a:	0000                	unimp
    8000471c:	0000                	unimp
    8000471e:	0000                	unimp
    80004720:	0000                	unimp
    80004722:	0000                	unimp
    80004724:	0000                	unimp
    80004726:	0000                	unimp
    80004728:	0000                	unimp
    8000472a:	0000                	unimp
    8000472c:	0000                	unimp
    8000472e:	0000                	unimp
    80004730:	0000                	unimp
    80004732:	0000                	unimp
    80004734:	0000                	unimp
    80004736:	0000                	unimp
    80004738:	0000                	unimp
    8000473a:	0000                	unimp
    8000473c:	0000                	unimp
    8000473e:	0000                	unimp
    80004740:	0000                	unimp
    80004742:	0000                	unimp
    80004744:	0000                	unimp
    80004746:	0000                	unimp
    80004748:	0000                	unimp
    8000474a:	0000                	unimp
    8000474c:	0000                	unimp
    8000474e:	0000                	unimp
    80004750:	0000                	unimp
    80004752:	0000                	unimp
    80004754:	0000                	unimp
    80004756:	0000                	unimp
    80004758:	0000                	unimp
    8000475a:	0000                	unimp
    8000475c:	0000                	unimp
    8000475e:	0000                	unimp
    80004760:	0000                	unimp
    80004762:	0000                	unimp
    80004764:	0000                	unimp
    80004766:	0000                	unimp
    80004768:	0000                	unimp
    8000476a:	0000                	unimp
    8000476c:	0000                	unimp
    8000476e:	0000                	unimp
    80004770:	0000                	unimp
    80004772:	0000                	unimp
    80004774:	0000                	unimp
    80004776:	0000                	unimp
    80004778:	0000                	unimp
    8000477a:	0000                	unimp
    8000477c:	0000                	unimp
    8000477e:	0000                	unimp
    80004780:	0000                	unimp
    80004782:	0000                	unimp
    80004784:	0000                	unimp
    80004786:	0000                	unimp
    80004788:	0000                	unimp
    8000478a:	0000                	unimp
    8000478c:	0000                	unimp
    8000478e:	0000                	unimp
    80004790:	0000                	unimp
    80004792:	0000                	unimp
    80004794:	0000                	unimp
    80004796:	0000                	unimp
    80004798:	0000                	unimp
    8000479a:	0000                	unimp
    8000479c:	0000                	unimp
    8000479e:	0000                	unimp
    800047a0:	0000                	unimp
    800047a2:	0000                	unimp
    800047a4:	0000                	unimp
    800047a6:	0000                	unimp
    800047a8:	0000                	unimp
    800047aa:	0000                	unimp
    800047ac:	0000                	unimp
    800047ae:	0000                	unimp
    800047b0:	0000                	unimp
    800047b2:	0000                	unimp
    800047b4:	0000                	unimp
    800047b6:	0000                	unimp
    800047b8:	0000                	unimp
    800047ba:	0000                	unimp
    800047bc:	0000                	unimp
    800047be:	0000                	unimp
    800047c0:	0000                	unimp
    800047c2:	0000                	unimp
    800047c4:	0000                	unimp
    800047c6:	0000                	unimp
    800047c8:	0000                	unimp
    800047ca:	0000                	unimp
    800047cc:	0000                	unimp
    800047ce:	0000                	unimp
    800047d0:	0000                	unimp
    800047d2:	0000                	unimp
    800047d4:	0000                	unimp
    800047d6:	0000                	unimp
    800047d8:	0000                	unimp
    800047da:	0000                	unimp
    800047dc:	0000                	unimp
    800047de:	0000                	unimp
    800047e0:	0000                	unimp
    800047e2:	0000                	unimp
    800047e4:	0000                	unimp
    800047e6:	0000                	unimp
    800047e8:	0000                	unimp
    800047ea:	0000                	unimp
    800047ec:	0000                	unimp
    800047ee:	0000                	unimp
    800047f0:	0000                	unimp
    800047f2:	0000                	unimp
    800047f4:	0000                	unimp
    800047f6:	0000                	unimp
    800047f8:	0000                	unimp
    800047fa:	0000                	unimp
    800047fc:	0000                	unimp
    800047fe:	0000                	unimp
    80004800:	0000                	unimp
    80004802:	0000                	unimp
    80004804:	0000                	unimp
    80004806:	0000                	unimp
    80004808:	0000                	unimp
    8000480a:	0000                	unimp
    8000480c:	0000                	unimp
    8000480e:	0000                	unimp
    80004810:	0000                	unimp
    80004812:	0000                	unimp
    80004814:	0000                	unimp
    80004816:	0000                	unimp
    80004818:	0000                	unimp
    8000481a:	0000                	unimp
    8000481c:	0000                	unimp
    8000481e:	0000                	unimp
    80004820:	0000                	unimp
    80004822:	0000                	unimp
    80004824:	0000                	unimp
    80004826:	0000                	unimp
    80004828:	0000                	unimp
    8000482a:	0000                	unimp
    8000482c:	0000                	unimp
    8000482e:	0000                	unimp
    80004830:	0000                	unimp
    80004832:	0000                	unimp
    80004834:	0000                	unimp
    80004836:	0000                	unimp
    80004838:	0000                	unimp
    8000483a:	0000                	unimp
    8000483c:	0000                	unimp
    8000483e:	0000                	unimp
    80004840:	0000                	unimp
    80004842:	0000                	unimp
    80004844:	0000                	unimp
    80004846:	0000                	unimp
    80004848:	0000                	unimp
    8000484a:	0000                	unimp
    8000484c:	0000                	unimp
    8000484e:	0000                	unimp
    80004850:	0000                	unimp
    80004852:	0000                	unimp
    80004854:	0000                	unimp
    80004856:	0000                	unimp
    80004858:	0000                	unimp
    8000485a:	0000                	unimp
    8000485c:	0000                	unimp
    8000485e:	0000                	unimp
    80004860:	0000                	unimp
    80004862:	0000                	unimp
    80004864:	0000                	unimp
    80004866:	0000                	unimp
    80004868:	0000                	unimp
    8000486a:	0000                	unimp
    8000486c:	0000                	unimp
    8000486e:	0000                	unimp
    80004870:	0000                	unimp
    80004872:	0000                	unimp
    80004874:	0000                	unimp
    80004876:	0000                	unimp
    80004878:	0000                	unimp
    8000487a:	0000                	unimp
    8000487c:	0000                	unimp
    8000487e:	0000                	unimp
    80004880:	0000                	unimp
    80004882:	0000                	unimp
    80004884:	0000                	unimp
    80004886:	0000                	unimp
    80004888:	0000                	unimp
    8000488a:	0000                	unimp
    8000488c:	0000                	unimp
    8000488e:	0000                	unimp
    80004890:	0000                	unimp
    80004892:	0000                	unimp
    80004894:	0000                	unimp
    80004896:	0000                	unimp
    80004898:	0000                	unimp
    8000489a:	0000                	unimp
    8000489c:	0000                	unimp
    8000489e:	0000                	unimp
    800048a0:	0000                	unimp
    800048a2:	0000                	unimp
    800048a4:	0000                	unimp
    800048a6:	0000                	unimp
    800048a8:	0000                	unimp
    800048aa:	0000                	unimp
    800048ac:	0000                	unimp
    800048ae:	0000                	unimp
    800048b0:	0000                	unimp
    800048b2:	0000                	unimp
    800048b4:	0000                	unimp
    800048b6:	0000                	unimp
    800048b8:	0000                	unimp
    800048ba:	0000                	unimp
    800048bc:	0000                	unimp
    800048be:	0000                	unimp
    800048c0:	0000                	unimp
    800048c2:	0000                	unimp
    800048c4:	0000                	unimp
    800048c6:	0000                	unimp
    800048c8:	0000                	unimp
    800048ca:	0000                	unimp
    800048cc:	0000                	unimp
    800048ce:	0000                	unimp
    800048d0:	0000                	unimp
    800048d2:	0000                	unimp
    800048d4:	0000                	unimp
    800048d6:	0000                	unimp
    800048d8:	0000                	unimp
    800048da:	0000                	unimp
    800048dc:	0000                	unimp
    800048de:	0000                	unimp
    800048e0:	0000                	unimp
    800048e2:	0000                	unimp
    800048e4:	0000                	unimp
    800048e6:	0000                	unimp
    800048e8:	0000                	unimp
    800048ea:	0000                	unimp
    800048ec:	0000                	unimp
    800048ee:	0000                	unimp
    800048f0:	0000                	unimp
    800048f2:	0000                	unimp
    800048f4:	0000                	unimp
    800048f6:	0000                	unimp
    800048f8:	0000                	unimp
    800048fa:	0000                	unimp
    800048fc:	0000                	unimp
    800048fe:	0000                	unimp
    80004900:	0000                	unimp
    80004902:	0000                	unimp
    80004904:	0000                	unimp
    80004906:	0000                	unimp
    80004908:	0000                	unimp
    8000490a:	0000                	unimp
    8000490c:	0000                	unimp
    8000490e:	0000                	unimp
    80004910:	0000                	unimp
    80004912:	0000                	unimp
    80004914:	0000                	unimp
    80004916:	0000                	unimp
    80004918:	0000                	unimp
    8000491a:	0000                	unimp
    8000491c:	0000                	unimp
    8000491e:	0000                	unimp
    80004920:	0000                	unimp
    80004922:	0000                	unimp
    80004924:	0000                	unimp
    80004926:	0000                	unimp
    80004928:	0000                	unimp
    8000492a:	0000                	unimp
    8000492c:	0000                	unimp
    8000492e:	0000                	unimp
    80004930:	0000                	unimp
    80004932:	0000                	unimp
    80004934:	0000                	unimp
    80004936:	0000                	unimp
    80004938:	0000                	unimp
    8000493a:	0000                	unimp
    8000493c:	0000                	unimp
    8000493e:	0000                	unimp
    80004940:	0000                	unimp
    80004942:	0000                	unimp
    80004944:	0000                	unimp
    80004946:	0000                	unimp
    80004948:	0000                	unimp
    8000494a:	0000                	unimp
    8000494c:	0000                	unimp
    8000494e:	0000                	unimp
    80004950:	0000                	unimp
    80004952:	0000                	unimp
    80004954:	0000                	unimp
    80004956:	0000                	unimp
    80004958:	0000                	unimp
    8000495a:	0000                	unimp
    8000495c:	0000                	unimp
    8000495e:	0000                	unimp
    80004960:	0000                	unimp
    80004962:	0000                	unimp
    80004964:	0000                	unimp
    80004966:	0000                	unimp
    80004968:	0000                	unimp
    8000496a:	0000                	unimp
    8000496c:	0000                	unimp
    8000496e:	0000                	unimp
    80004970:	0000                	unimp
    80004972:	0000                	unimp
    80004974:	0000                	unimp
    80004976:	0000                	unimp
    80004978:	0000                	unimp
    8000497a:	0000                	unimp
    8000497c:	0000                	unimp
    8000497e:	0000                	unimp
    80004980:	0000                	unimp
    80004982:	0000                	unimp
    80004984:	0000                	unimp
    80004986:	0000                	unimp
    80004988:	0000                	unimp
    8000498a:	0000                	unimp
    8000498c:	0000                	unimp
    8000498e:	0000                	unimp
    80004990:	0000                	unimp
    80004992:	0000                	unimp
    80004994:	0000                	unimp
    80004996:	0000                	unimp
    80004998:	0000                	unimp
    8000499a:	0000                	unimp
    8000499c:	0000                	unimp
    8000499e:	0000                	unimp
    800049a0:	0000                	unimp
    800049a2:	0000                	unimp
    800049a4:	0000                	unimp
    800049a6:	0000                	unimp
    800049a8:	0000                	unimp
    800049aa:	0000                	unimp
    800049ac:	0000                	unimp
    800049ae:	0000                	unimp
    800049b0:	0000                	unimp
    800049b2:	0000                	unimp
    800049b4:	0000                	unimp
    800049b6:	0000                	unimp
    800049b8:	0000                	unimp
    800049ba:	0000                	unimp
    800049bc:	0000                	unimp
    800049be:	0000                	unimp
    800049c0:	0000                	unimp
    800049c2:	0000                	unimp
    800049c4:	0000                	unimp
    800049c6:	0000                	unimp
    800049c8:	0000                	unimp
    800049ca:	0000                	unimp
    800049cc:	0000                	unimp
    800049ce:	0000                	unimp
    800049d0:	0000                	unimp
    800049d2:	0000                	unimp
    800049d4:	0000                	unimp
    800049d6:	0000                	unimp
    800049d8:	0000                	unimp
    800049da:	0000                	unimp
    800049dc:	0000                	unimp
    800049de:	0000                	unimp
    800049e0:	0000                	unimp
    800049e2:	0000                	unimp
    800049e4:	0000                	unimp
    800049e6:	0000                	unimp
    800049e8:	0000                	unimp
    800049ea:	0000                	unimp
    800049ec:	0000                	unimp
    800049ee:	0000                	unimp
    800049f0:	0000                	unimp
    800049f2:	0000                	unimp
    800049f4:	0000                	unimp
    800049f6:	0000                	unimp
    800049f8:	0000                	unimp
    800049fa:	0000                	unimp
    800049fc:	0000                	unimp
    800049fe:	0000                	unimp
    80004a00:	0000                	unimp
    80004a02:	0000                	unimp
    80004a04:	0000                	unimp
    80004a06:	0000                	unimp
    80004a08:	0000                	unimp
    80004a0a:	0000                	unimp
    80004a0c:	0000                	unimp
    80004a0e:	0000                	unimp
    80004a10:	0000                	unimp
    80004a12:	0000                	unimp
    80004a14:	0000                	unimp
    80004a16:	0000                	unimp
    80004a18:	0000                	unimp
    80004a1a:	0000                	unimp
    80004a1c:	0000                	unimp
    80004a1e:	0000                	unimp
    80004a20:	0000                	unimp
    80004a22:	0000                	unimp
    80004a24:	0000                	unimp
    80004a26:	0000                	unimp
    80004a28:	0000                	unimp
    80004a2a:	0000                	unimp
    80004a2c:	0000                	unimp
    80004a2e:	0000                	unimp
    80004a30:	0000                	unimp
    80004a32:	0000                	unimp
    80004a34:	0000                	unimp
    80004a36:	0000                	unimp
    80004a38:	0000                	unimp
    80004a3a:	0000                	unimp
    80004a3c:	0000                	unimp
    80004a3e:	0000                	unimp
    80004a40:	0000                	unimp
    80004a42:	0000                	unimp
    80004a44:	0000                	unimp
    80004a46:	0000                	unimp
    80004a48:	0000                	unimp
    80004a4a:	0000                	unimp
    80004a4c:	0000                	unimp
    80004a4e:	0000                	unimp
    80004a50:	0000                	unimp
    80004a52:	0000                	unimp
    80004a54:	0000                	unimp
    80004a56:	0000                	unimp
    80004a58:	0000                	unimp
    80004a5a:	0000                	unimp
    80004a5c:	0000                	unimp
    80004a5e:	0000                	unimp
    80004a60:	0000                	unimp
    80004a62:	0000                	unimp
    80004a64:	0000                	unimp
    80004a66:	0000                	unimp
    80004a68:	0000                	unimp
    80004a6a:	0000                	unimp
    80004a6c:	0000                	unimp
    80004a6e:	0000                	unimp
    80004a70:	0000                	unimp
    80004a72:	0000                	unimp
    80004a74:	0000                	unimp
    80004a76:	0000                	unimp
    80004a78:	0000                	unimp
    80004a7a:	0000                	unimp
    80004a7c:	0000                	unimp
    80004a7e:	0000                	unimp
    80004a80:	0000                	unimp
    80004a82:	0000                	unimp
    80004a84:	0000                	unimp
    80004a86:	0000                	unimp
    80004a88:	0000                	unimp
    80004a8a:	0000                	unimp
    80004a8c:	0000                	unimp
    80004a8e:	0000                	unimp
    80004a90:	0000                	unimp
    80004a92:	0000                	unimp
    80004a94:	0000                	unimp
    80004a96:	0000                	unimp
    80004a98:	0000                	unimp
    80004a9a:	0000                	unimp
    80004a9c:	0000                	unimp
    80004a9e:	0000                	unimp
    80004aa0:	0000                	unimp
    80004aa2:	0000                	unimp
    80004aa4:	0000                	unimp
    80004aa6:	0000                	unimp
    80004aa8:	0000                	unimp
    80004aaa:	0000                	unimp
    80004aac:	0000                	unimp
    80004aae:	0000                	unimp
    80004ab0:	0000                	unimp
    80004ab2:	0000                	unimp
    80004ab4:	0000                	unimp
    80004ab6:	0000                	unimp
    80004ab8:	0000                	unimp
    80004aba:	0000                	unimp
    80004abc:	0000                	unimp
    80004abe:	0000                	unimp
    80004ac0:	0000                	unimp
    80004ac2:	0000                	unimp
    80004ac4:	0000                	unimp
    80004ac6:	0000                	unimp
    80004ac8:	0000                	unimp
    80004aca:	0000                	unimp
    80004acc:	0000                	unimp
    80004ace:	0000                	unimp
    80004ad0:	0000                	unimp
    80004ad2:	0000                	unimp
    80004ad4:	0000                	unimp
    80004ad6:	0000                	unimp
    80004ad8:	0000                	unimp
    80004ada:	0000                	unimp
    80004adc:	0000                	unimp
    80004ade:	0000                	unimp
    80004ae0:	0000                	unimp
    80004ae2:	0000                	unimp
    80004ae4:	0000                	unimp
    80004ae6:	0000                	unimp
    80004ae8:	0000                	unimp
    80004aea:	0000                	unimp
    80004aec:	0000                	unimp
    80004aee:	0000                	unimp
    80004af0:	0000                	unimp
    80004af2:	0000                	unimp
    80004af4:	0000                	unimp
    80004af6:	0000                	unimp
    80004af8:	0000                	unimp
    80004afa:	0000                	unimp
    80004afc:	0000                	unimp
    80004afe:	0000                	unimp
    80004b00:	0000                	unimp
    80004b02:	0000                	unimp
    80004b04:	0000                	unimp
    80004b06:	0000                	unimp
    80004b08:	0000                	unimp
    80004b0a:	0000                	unimp
    80004b0c:	0000                	unimp
    80004b0e:	0000                	unimp
    80004b10:	0000                	unimp
    80004b12:	0000                	unimp
    80004b14:	0000                	unimp
    80004b16:	0000                	unimp
    80004b18:	0000                	unimp
    80004b1a:	0000                	unimp
    80004b1c:	0000                	unimp
    80004b1e:	0000                	unimp
    80004b20:	0000                	unimp
    80004b22:	0000                	unimp
    80004b24:	0000                	unimp
    80004b26:	0000                	unimp
    80004b28:	0000                	unimp
    80004b2a:	0000                	unimp
    80004b2c:	0000                	unimp
    80004b2e:	0000                	unimp
    80004b30:	0000                	unimp
    80004b32:	0000                	unimp
    80004b34:	0000                	unimp
    80004b36:	0000                	unimp
    80004b38:	0000                	unimp
    80004b3a:	0000                	unimp
    80004b3c:	0000                	unimp
    80004b3e:	0000                	unimp
    80004b40:	0000                	unimp
    80004b42:	0000                	unimp
    80004b44:	0000                	unimp
    80004b46:	0000                	unimp
    80004b48:	0000                	unimp
    80004b4a:	0000                	unimp
    80004b4c:	0000                	unimp
    80004b4e:	0000                	unimp
    80004b50:	0000                	unimp
    80004b52:	0000                	unimp
    80004b54:	0000                	unimp
    80004b56:	0000                	unimp
    80004b58:	0000                	unimp
    80004b5a:	0000                	unimp
    80004b5c:	0000                	unimp
    80004b5e:	0000                	unimp
    80004b60:	0000                	unimp
    80004b62:	0000                	unimp
    80004b64:	0000                	unimp
    80004b66:	0000                	unimp
    80004b68:	0000                	unimp
    80004b6a:	0000                	unimp
    80004b6c:	0000                	unimp
    80004b6e:	0000                	unimp
    80004b70:	0000                	unimp
    80004b72:	0000                	unimp
    80004b74:	0000                	unimp
    80004b76:	0000                	unimp
    80004b78:	0000                	unimp
    80004b7a:	0000                	unimp
    80004b7c:	0000                	unimp
    80004b7e:	0000                	unimp
    80004b80:	0000                	unimp
    80004b82:	0000                	unimp
    80004b84:	0000                	unimp
    80004b86:	0000                	unimp
    80004b88:	0000                	unimp
    80004b8a:	0000                	unimp
    80004b8c:	0000                	unimp
    80004b8e:	0000                	unimp
    80004b90:	0000                	unimp
    80004b92:	0000                	unimp
    80004b94:	0000                	unimp
    80004b96:	0000                	unimp
    80004b98:	0000                	unimp
    80004b9a:	0000                	unimp
    80004b9c:	0000                	unimp
    80004b9e:	0000                	unimp
    80004ba0:	0000                	unimp
    80004ba2:	0000                	unimp
    80004ba4:	0000                	unimp
    80004ba6:	0000                	unimp
    80004ba8:	0000                	unimp
    80004baa:	0000                	unimp
    80004bac:	0000                	unimp
    80004bae:	0000                	unimp
    80004bb0:	0000                	unimp
    80004bb2:	0000                	unimp
    80004bb4:	0000                	unimp
    80004bb6:	0000                	unimp
    80004bb8:	0000                	unimp
    80004bba:	0000                	unimp
    80004bbc:	0000                	unimp
    80004bbe:	0000                	unimp
    80004bc0:	0000                	unimp
    80004bc2:	0000                	unimp
    80004bc4:	0000                	unimp
    80004bc6:	0000                	unimp
    80004bc8:	0000                	unimp
    80004bca:	0000                	unimp
    80004bcc:	0000                	unimp
    80004bce:	0000                	unimp
    80004bd0:	0000                	unimp
    80004bd2:	0000                	unimp
    80004bd4:	0000                	unimp
    80004bd6:	0000                	unimp
    80004bd8:	0000                	unimp
    80004bda:	0000                	unimp
    80004bdc:	0000                	unimp
    80004bde:	0000                	unimp
    80004be0:	0000                	unimp
    80004be2:	0000                	unimp
    80004be4:	0000                	unimp
    80004be6:	0000                	unimp
    80004be8:	0000                	unimp
    80004bea:	0000                	unimp
    80004bec:	0000                	unimp
    80004bee:	0000                	unimp
    80004bf0:	0000                	unimp
    80004bf2:	0000                	unimp
    80004bf4:	0000                	unimp
    80004bf6:	0000                	unimp
    80004bf8:	0000                	unimp
    80004bfa:	0000                	unimp
    80004bfc:	0000                	unimp
    80004bfe:	0000                	unimp
    80004c00:	0000                	unimp
    80004c02:	0000                	unimp
    80004c04:	0000                	unimp
    80004c06:	0000                	unimp
    80004c08:	0000                	unimp
    80004c0a:	0000                	unimp
    80004c0c:	0000                	unimp
    80004c0e:	0000                	unimp
    80004c10:	0000                	unimp
    80004c12:	0000                	unimp
    80004c14:	0000                	unimp
    80004c16:	0000                	unimp
    80004c18:	0000                	unimp
    80004c1a:	0000                	unimp
    80004c1c:	0000                	unimp
    80004c1e:	0000                	unimp
    80004c20:	0000                	unimp
    80004c22:	0000                	unimp
    80004c24:	0000                	unimp
    80004c26:	0000                	unimp
    80004c28:	0000                	unimp
    80004c2a:	0000                	unimp
    80004c2c:	0000                	unimp
    80004c2e:	0000                	unimp
    80004c30:	0000                	unimp
    80004c32:	0000                	unimp
    80004c34:	0000                	unimp
    80004c36:	0000                	unimp
    80004c38:	0000                	unimp
    80004c3a:	0000                	unimp
    80004c3c:	0000                	unimp
    80004c3e:	0000                	unimp
    80004c40:	0000                	unimp
    80004c42:	0000                	unimp
    80004c44:	0000                	unimp
    80004c46:	0000                	unimp
    80004c48:	0000                	unimp
    80004c4a:	0000                	unimp
    80004c4c:	0000                	unimp
    80004c4e:	0000                	unimp
    80004c50:	0000                	unimp
    80004c52:	0000                	unimp
    80004c54:	0000                	unimp
    80004c56:	0000                	unimp
    80004c58:	0000                	unimp
    80004c5a:	0000                	unimp
    80004c5c:	0000                	unimp
    80004c5e:	0000                	unimp
    80004c60:	0000                	unimp
    80004c62:	0000                	unimp
    80004c64:	0000                	unimp
    80004c66:	0000                	unimp
    80004c68:	0000                	unimp
    80004c6a:	0000                	unimp
    80004c6c:	0000                	unimp
    80004c6e:	0000                	unimp
    80004c70:	0000                	unimp
    80004c72:	0000                	unimp
    80004c74:	0000                	unimp
    80004c76:	0000                	unimp
    80004c78:	0000                	unimp
    80004c7a:	0000                	unimp
    80004c7c:	0000                	unimp
    80004c7e:	0000                	unimp
    80004c80:	0000                	unimp
    80004c82:	0000                	unimp
    80004c84:	0000                	unimp
    80004c86:	0000                	unimp
    80004c88:	0000                	unimp
    80004c8a:	0000                	unimp
    80004c8c:	0000                	unimp
    80004c8e:	0000                	unimp
    80004c90:	0000                	unimp
    80004c92:	0000                	unimp
    80004c94:	0000                	unimp
    80004c96:	0000                	unimp
    80004c98:	0000                	unimp
    80004c9a:	0000                	unimp
    80004c9c:	0000                	unimp
    80004c9e:	0000                	unimp
    80004ca0:	0000                	unimp
    80004ca2:	0000                	unimp
    80004ca4:	0000                	unimp
    80004ca6:	0000                	unimp
    80004ca8:	0000                	unimp
    80004caa:	0000                	unimp
    80004cac:	0000                	unimp
    80004cae:	0000                	unimp
    80004cb0:	0000                	unimp
    80004cb2:	0000                	unimp
    80004cb4:	0000                	unimp
    80004cb6:	0000                	unimp
    80004cb8:	0000                	unimp
    80004cba:	0000                	unimp
    80004cbc:	0000                	unimp
    80004cbe:	0000                	unimp
    80004cc0:	0000                	unimp
    80004cc2:	0000                	unimp
    80004cc4:	0000                	unimp
    80004cc6:	0000                	unimp
    80004cc8:	0000                	unimp
    80004cca:	0000                	unimp
    80004ccc:	0000                	unimp
    80004cce:	0000                	unimp
    80004cd0:	0000                	unimp
    80004cd2:	0000                	unimp
    80004cd4:	0000                	unimp
    80004cd6:	0000                	unimp
    80004cd8:	0000                	unimp
    80004cda:	0000                	unimp
    80004cdc:	0000                	unimp
    80004cde:	0000                	unimp
    80004ce0:	0000                	unimp
    80004ce2:	0000                	unimp
    80004ce4:	0000                	unimp
    80004ce6:	0000                	unimp
    80004ce8:	0000                	unimp
    80004cea:	0000                	unimp
    80004cec:	0000                	unimp
    80004cee:	0000                	unimp
    80004cf0:	0000                	unimp
    80004cf2:	0000                	unimp
    80004cf4:	0000                	unimp
    80004cf6:	0000                	unimp
    80004cf8:	0000                	unimp
    80004cfa:	0000                	unimp
    80004cfc:	0000                	unimp
    80004cfe:	0000                	unimp
    80004d00:	0000                	unimp
    80004d02:	0000                	unimp
    80004d04:	0000                	unimp
    80004d06:	0000                	unimp
    80004d08:	0000                	unimp
    80004d0a:	0000                	unimp
    80004d0c:	0000                	unimp
    80004d0e:	0000                	unimp
    80004d10:	0000                	unimp
    80004d12:	0000                	unimp
    80004d14:	0000                	unimp
    80004d16:	0000                	unimp
    80004d18:	0000                	unimp
    80004d1a:	0000                	unimp
    80004d1c:	0000                	unimp
    80004d1e:	0000                	unimp
    80004d20:	0000                	unimp
    80004d22:	0000                	unimp
    80004d24:	0000                	unimp
    80004d26:	0000                	unimp
    80004d28:	0000                	unimp
    80004d2a:	0000                	unimp
    80004d2c:	0000                	unimp
    80004d2e:	0000                	unimp
    80004d30:	0000                	unimp
    80004d32:	0000                	unimp
    80004d34:	0000                	unimp
    80004d36:	0000                	unimp
    80004d38:	0000                	unimp
    80004d3a:	0000                	unimp
    80004d3c:	0000                	unimp
    80004d3e:	0000                	unimp
    80004d40:	0000                	unimp
    80004d42:	0000                	unimp
    80004d44:	0000                	unimp
    80004d46:	0000                	unimp
    80004d48:	0000                	unimp
    80004d4a:	0000                	unimp
    80004d4c:	0000                	unimp
    80004d4e:	0000                	unimp
    80004d50:	0000                	unimp
    80004d52:	0000                	unimp
    80004d54:	0000                	unimp
    80004d56:	0000                	unimp
    80004d58:	0000                	unimp
    80004d5a:	0000                	unimp
    80004d5c:	0000                	unimp
    80004d5e:	0000                	unimp
    80004d60:	0000                	unimp
    80004d62:	0000                	unimp
    80004d64:	0000                	unimp
    80004d66:	0000                	unimp
    80004d68:	0000                	unimp
    80004d6a:	0000                	unimp
    80004d6c:	0000                	unimp
    80004d6e:	0000                	unimp
    80004d70:	0000                	unimp
    80004d72:	0000                	unimp
    80004d74:	0000                	unimp
    80004d76:	0000                	unimp
    80004d78:	0000                	unimp
    80004d7a:	0000                	unimp
    80004d7c:	0000                	unimp
    80004d7e:	0000                	unimp
    80004d80:	0000                	unimp
    80004d82:	0000                	unimp
    80004d84:	0000                	unimp
    80004d86:	0000                	unimp
    80004d88:	0000                	unimp
    80004d8a:	0000                	unimp
    80004d8c:	0000                	unimp
    80004d8e:	0000                	unimp
    80004d90:	0000                	unimp
    80004d92:	0000                	unimp
    80004d94:	0000                	unimp
    80004d96:	0000                	unimp
    80004d98:	0000                	unimp
    80004d9a:	0000                	unimp
    80004d9c:	0000                	unimp
    80004d9e:	0000                	unimp
    80004da0:	0000                	unimp
    80004da2:	0000                	unimp
    80004da4:	0000                	unimp
    80004da6:	0000                	unimp
    80004da8:	0000                	unimp
    80004daa:	0000                	unimp
    80004dac:	0000                	unimp
    80004dae:	0000                	unimp
    80004db0:	0000                	unimp
    80004db2:	0000                	unimp
    80004db4:	0000                	unimp
    80004db6:	0000                	unimp
    80004db8:	0000                	unimp
    80004dba:	0000                	unimp
    80004dbc:	0000                	unimp
    80004dbe:	0000                	unimp
    80004dc0:	0000                	unimp
    80004dc2:	0000                	unimp
    80004dc4:	0000                	unimp
    80004dc6:	0000                	unimp
    80004dc8:	0000                	unimp
    80004dca:	0000                	unimp
    80004dcc:	0000                	unimp
    80004dce:	0000                	unimp
    80004dd0:	0000                	unimp
    80004dd2:	0000                	unimp
    80004dd4:	0000                	unimp
    80004dd6:	0000                	unimp
    80004dd8:	0000                	unimp
    80004dda:	0000                	unimp
    80004ddc:	0000                	unimp
    80004dde:	0000                	unimp
    80004de0:	0000                	unimp
    80004de2:	0000                	unimp
    80004de4:	0000                	unimp
    80004de6:	0000                	unimp
    80004de8:	0000                	unimp
    80004dea:	0000                	unimp
    80004dec:	0000                	unimp
    80004dee:	0000                	unimp
    80004df0:	0000                	unimp
    80004df2:	0000                	unimp
    80004df4:	0000                	unimp
    80004df6:	0000                	unimp
    80004df8:	0000                	unimp
    80004dfa:	0000                	unimp
    80004dfc:	0000                	unimp
    80004dfe:	0000                	unimp
    80004e00:	0000                	unimp
    80004e02:	0000                	unimp
    80004e04:	0000                	unimp
    80004e06:	0000                	unimp
    80004e08:	0000                	unimp
    80004e0a:	0000                	unimp
    80004e0c:	0000                	unimp
    80004e0e:	0000                	unimp
    80004e10:	0000                	unimp
    80004e12:	0000                	unimp
    80004e14:	0000                	unimp
    80004e16:	0000                	unimp
    80004e18:	0000                	unimp
    80004e1a:	0000                	unimp
    80004e1c:	0000                	unimp
    80004e1e:	0000                	unimp
    80004e20:	0000                	unimp
    80004e22:	0000                	unimp
    80004e24:	0000                	unimp
    80004e26:	0000                	unimp
    80004e28:	0000                	unimp
    80004e2a:	0000                	unimp
    80004e2c:	0000                	unimp
    80004e2e:	0000                	unimp
    80004e30:	0000                	unimp
    80004e32:	0000                	unimp
    80004e34:	0000                	unimp
    80004e36:	0000                	unimp
    80004e38:	0000                	unimp
    80004e3a:	0000                	unimp
    80004e3c:	0000                	unimp
    80004e3e:	0000                	unimp
    80004e40:	0000                	unimp
    80004e42:	0000                	unimp
    80004e44:	0000                	unimp
    80004e46:	0000                	unimp
    80004e48:	0000                	unimp
    80004e4a:	0000                	unimp
    80004e4c:	0000                	unimp
    80004e4e:	0000                	unimp
    80004e50:	0000                	unimp
    80004e52:	0000                	unimp
    80004e54:	0000                	unimp
    80004e56:	0000                	unimp
    80004e58:	0000                	unimp
    80004e5a:	0000                	unimp
    80004e5c:	0000                	unimp
    80004e5e:	0000                	unimp
    80004e60:	0000                	unimp
    80004e62:	0000                	unimp
    80004e64:	0000                	unimp
    80004e66:	0000                	unimp
    80004e68:	0000                	unimp
    80004e6a:	0000                	unimp
    80004e6c:	0000                	unimp
    80004e6e:	0000                	unimp
    80004e70:	0000                	unimp
    80004e72:	0000                	unimp
    80004e74:	0000                	unimp
    80004e76:	0000                	unimp
    80004e78:	0000                	unimp
    80004e7a:	0000                	unimp
    80004e7c:	0000                	unimp
    80004e7e:	0000                	unimp
    80004e80:	0000                	unimp
    80004e82:	0000                	unimp
    80004e84:	0000                	unimp
    80004e86:	0000                	unimp
    80004e88:	0000                	unimp
    80004e8a:	0000                	unimp
    80004e8c:	0000                	unimp
    80004e8e:	0000                	unimp
    80004e90:	0000                	unimp
    80004e92:	0000                	unimp
    80004e94:	0000                	unimp
    80004e96:	0000                	unimp
    80004e98:	0000                	unimp
    80004e9a:	0000                	unimp
    80004e9c:	0000                	unimp
    80004e9e:	0000                	unimp
    80004ea0:	0000                	unimp
    80004ea2:	0000                	unimp
    80004ea4:	0000                	unimp
    80004ea6:	0000                	unimp
    80004ea8:	0000                	unimp
    80004eaa:	0000                	unimp
    80004eac:	0000                	unimp
    80004eae:	0000                	unimp
    80004eb0:	0000                	unimp
    80004eb2:	0000                	unimp
    80004eb4:	0000                	unimp
    80004eb6:	0000                	unimp
    80004eb8:	0000                	unimp
    80004eba:	0000                	unimp
    80004ebc:	0000                	unimp
    80004ebe:	0000                	unimp
    80004ec0:	0000                	unimp
    80004ec2:	0000                	unimp
    80004ec4:	0000                	unimp
    80004ec6:	0000                	unimp
    80004ec8:	0000                	unimp
    80004eca:	0000                	unimp
    80004ecc:	0000                	unimp
    80004ece:	0000                	unimp
    80004ed0:	0000                	unimp
    80004ed2:	0000                	unimp
    80004ed4:	0000                	unimp
    80004ed6:	0000                	unimp
    80004ed8:	0000                	unimp
    80004eda:	0000                	unimp
    80004edc:	0000                	unimp
    80004ede:	0000                	unimp
    80004ee0:	0000                	unimp
    80004ee2:	0000                	unimp
    80004ee4:	0000                	unimp
    80004ee6:	0000                	unimp
    80004ee8:	0000                	unimp
    80004eea:	0000                	unimp
    80004eec:	0000                	unimp
    80004eee:	0000                	unimp
    80004ef0:	0000                	unimp
    80004ef2:	0000                	unimp
    80004ef4:	0000                	unimp
    80004ef6:	0000                	unimp
    80004ef8:	0000                	unimp
    80004efa:	0000                	unimp
    80004efc:	0000                	unimp
    80004efe:	0000                	unimp
    80004f00:	0000                	unimp
    80004f02:	0000                	unimp
    80004f04:	0000                	unimp
    80004f06:	0000                	unimp
    80004f08:	0000                	unimp
    80004f0a:	0000                	unimp
    80004f0c:	0000                	unimp
    80004f0e:	0000                	unimp
    80004f10:	0000                	unimp
    80004f12:	0000                	unimp
    80004f14:	0000                	unimp
    80004f16:	0000                	unimp
    80004f18:	0000                	unimp
    80004f1a:	0000                	unimp
    80004f1c:	0000                	unimp
    80004f1e:	0000                	unimp
    80004f20:	0000                	unimp
    80004f22:	0000                	unimp
    80004f24:	0000                	unimp
    80004f26:	0000                	unimp
    80004f28:	0000                	unimp
    80004f2a:	0000                	unimp
    80004f2c:	0000                	unimp
    80004f2e:	0000                	unimp
    80004f30:	0000                	unimp
    80004f32:	0000                	unimp
    80004f34:	0000                	unimp
    80004f36:	0000                	unimp
    80004f38:	0000                	unimp
    80004f3a:	0000                	unimp
    80004f3c:	0000                	unimp
    80004f3e:	0000                	unimp
    80004f40:	0000                	unimp
    80004f42:	0000                	unimp
    80004f44:	0000                	unimp
    80004f46:	0000                	unimp
    80004f48:	0000                	unimp
    80004f4a:	0000                	unimp
    80004f4c:	0000                	unimp
    80004f4e:	0000                	unimp
    80004f50:	0000                	unimp
    80004f52:	0000                	unimp
    80004f54:	0000                	unimp
    80004f56:	0000                	unimp
    80004f58:	0000                	unimp
    80004f5a:	0000                	unimp
    80004f5c:	0000                	unimp
    80004f5e:	0000                	unimp
    80004f60:	0000                	unimp
    80004f62:	0000                	unimp
    80004f64:	0000                	unimp
    80004f66:	0000                	unimp
    80004f68:	0000                	unimp
    80004f6a:	0000                	unimp
    80004f6c:	0000                	unimp
    80004f6e:	0000                	unimp
    80004f70:	0000                	unimp
    80004f72:	0000                	unimp
    80004f74:	0000                	unimp
    80004f76:	0000                	unimp
    80004f78:	0000                	unimp
    80004f7a:	0000                	unimp
    80004f7c:	0000                	unimp
    80004f7e:	0000                	unimp
    80004f80:	0000                	unimp
    80004f82:	0000                	unimp
    80004f84:	0000                	unimp
    80004f86:	0000                	unimp
    80004f88:	0000                	unimp
    80004f8a:	0000                	unimp
    80004f8c:	0000                	unimp
    80004f8e:	0000                	unimp
    80004f90:	0000                	unimp
    80004f92:	0000                	unimp
    80004f94:	0000                	unimp
    80004f96:	0000                	unimp
    80004f98:	0000                	unimp
    80004f9a:	0000                	unimp
    80004f9c:	0000                	unimp
    80004f9e:	0000                	unimp
    80004fa0:	0000                	unimp
    80004fa2:	0000                	unimp
    80004fa4:	0000                	unimp
    80004fa6:	0000                	unimp
    80004fa8:	0000                	unimp
    80004faa:	0000                	unimp
    80004fac:	0000                	unimp
    80004fae:	0000                	unimp
    80004fb0:	0000                	unimp
    80004fb2:	0000                	unimp
    80004fb4:	0000                	unimp
    80004fb6:	0000                	unimp
    80004fb8:	0000                	unimp
    80004fba:	0000                	unimp
    80004fbc:	0000                	unimp
    80004fbe:	0000                	unimp
    80004fc0:	0000                	unimp
    80004fc2:	0000                	unimp
    80004fc4:	0000                	unimp
    80004fc6:	0000                	unimp
    80004fc8:	0000                	unimp
    80004fca:	0000                	unimp
    80004fcc:	0000                	unimp
    80004fce:	0000                	unimp
    80004fd0:	0000                	unimp
    80004fd2:	0000                	unimp
    80004fd4:	0000                	unimp
    80004fd6:	0000                	unimp
    80004fd8:	0000                	unimp
    80004fda:	0000                	unimp
    80004fdc:	0000                	unimp
    80004fde:	0000                	unimp
    80004fe0:	0000                	unimp
    80004fe2:	0000                	unimp
    80004fe4:	0000                	unimp
    80004fe6:	0000                	unimp
    80004fe8:	0000                	unimp
    80004fea:	0000                	unimp
    80004fec:	0000                	unimp
    80004fee:	0000                	unimp
    80004ff0:	0000                	unimp
    80004ff2:	0000                	unimp
    80004ff4:	0000                	unimp
    80004ff6:	0000                	unimp
    80004ff8:	0000                	unimp
    80004ffa:	0000                	unimp
    80004ffc:	0000                	unimp
    80004ffe:	00158593          	addi	a1,a1,1
    80005002:	29b00e93          	li	t4,667
    80005006:	00200193          	li	gp,2
    8000500a:	2dd59163          	bne	a1,t4,800052cc <fail>
    8000500e:	00001137          	lui	sp,0x1
    80005012:	2341011b          	addiw	sp,sp,564

0000000080005016 <test_3>:
    80005016:	1fe8                	addi	a0,sp,1020
    80005018:	00001eb7          	lui	t4,0x1
    8000501c:	630e8e9b          	addiw	t4,t4,1584
    80005020:	00300193          	li	gp,3
    80005024:	2bd51463          	bne	a0,t4,800052cc <fail>

0000000080005028 <test_4>:
    80005028:	617d                	addi	sp,sp,496
    8000502a:	0001                	nop
    8000502c:	00001eb7          	lui	t4,0x1
    80005030:	424e8e9b          	addiw	t4,t4,1060
    80005034:	00400193          	li	gp,4
    80005038:	29d11a63          	bne	sp,t4,800052cc <fail>

000000008000503c <test_5>:
    8000503c:	7101                	addi	sp,sp,-512
    8000503e:	0001                	nop
    80005040:	00001eb7          	lui	t4,0x1
    80005044:	224e8e9b          	addiw	t4,t4,548
    80005048:	00500193          	li	gp,5
    8000504c:	29d11063          	bne	sp,t4,800052cc <fail>
    80005050:	ffffe597          	auipc	a1,0xffffe
    80005054:	fc058593          	addi	a1,a1,-64 # 80003010 <data>

0000000080005058 <test_6>:
    80005058:	41c8                	lw	a0,4(a1)
    8000505a:	0505                	addi	a0,a0,1
    8000505c:	c1c8                	sw	a0,4(a1)
    8000505e:	41d0                	lw	a2,4(a1)
    80005060:	fedcceb7          	lui	t4,0xfedcc
    80005064:	a99e8e9b          	addiw	t4,t4,-1383
    80005068:	00600193          	li	gp,6
    8000506c:	27d61063          	bne	a2,t4,800052cc <fail>

0000000080005070 <test_7>:
    80005070:	6188                	ld	a0,0(a1)
    80005072:	0505                	addi	a0,a0,1
    80005074:	e188                	sd	a0,0(a1)
    80005076:	6190                	ld	a2,0(a1)
    80005078:	fff6eeb7          	lui	t4,0xfff6e
    8000507c:	5d5e8e9b          	addiw	t4,t4,1493
    80005080:	00ce9e93          	slli	t4,t4,0xc
    80005084:	cbbe8e93          	addi	t4,t4,-837 # fffffffffff6dcbb <_end+0xffffffff7ff624cb>
    80005088:	00de9e93          	slli	t4,t4,0xd
    8000508c:	543e8e93          	addi	t4,t4,1347
    80005090:	00ce9e93          	slli	t4,t4,0xc
    80005094:	211e8e93          	addi	t4,t4,529
    80005098:	00700193          	li	gp,7
    8000509c:	23d61863          	bne	a2,t4,800052cc <fail>

00000000800050a0 <test_8>:
    800050a0:	00106513          	ori	a0,zero,1
    800050a4:	1541                	addi	a0,a0,-16
    800050a6:	0001                	nop
    800050a8:	ff100e93          	li	t4,-15
    800050ac:	00800193          	li	gp,8
    800050b0:	21d51e63          	bne	a0,t4,800052cc <fail>

00000000800050b4 <test_9>:
    800050b4:	00106793          	ori	a5,zero,1
    800050b8:	57c1                	li	a5,-16
    800050ba:	0001                	nop
    800050bc:	ff000e93          	li	t4,-16
    800050c0:	00900193          	li	gp,9
    800050c4:	21d79463          	bne	a5,t4,800052cc <fail>

00000000800050c8 <test_10>:
    800050c8:	6188                	ld	a0,0(a1)
    800050ca:	357d                	addiw	a0,a0,-1
    800050cc:	76543eb7          	lui	t4,0x76543
    800050d0:	210e8e9b          	addiw	t4,t4,528
    800050d4:	00a00193          	li	gp,10
    800050d8:	1fd51a63          	bne	a0,t4,800052cc <fail>

00000000800050dc <test_11>:
    800050dc:	7405                	lui	s0,0xfffe1
    800050de:	8431                	srai	s0,s0,0xc
    800050e0:	fe100e93          	li	t4,-31
    800050e4:	00b00193          	li	gp,11
    800050e8:	1fd41263          	bne	s0,t4,800052cc <fail>

00000000800050ec <test_12>:
    800050ec:	7405                	lui	s0,0xfffe1
    800050ee:	8031                	srli	s0,s0,0xc
    800050f0:	00100e9b          	addiw	t4,zero,1
    800050f4:	034e9e93          	slli	t4,t4,0x34
    800050f8:	fe1e8e93          	addi	t4,t4,-31 # 76542fe1 <_start-0x9abd01f>
    800050fc:	00c00193          	li	gp,12
    80005100:	1dd41663          	bne	s0,t4,800052cc <fail>

0000000080005104 <test_14>:
    80005104:	5479                	li	s0,-2
    80005106:	983d                	andi	s0,s0,-17
    80005108:	fee00e93          	li	t4,-18
    8000510c:	00e00193          	li	gp,14
    80005110:	1bd41e63          	bne	s0,t4,800052cc <fail>

0000000080005114 <test_15>:
    80005114:	44d1                	li	s1,20
    80005116:	4519                	li	a0,6
    80005118:	8c89                	sub	s1,s1,a0
    8000511a:	0001                	nop
    8000511c:	00e00e93          	li	t4,14
    80005120:	00f00193          	li	gp,15
    80005124:	1bd49463          	bne	s1,t4,800052cc <fail>

0000000080005128 <test_16>:
    80005128:	44d1                	li	s1,20
    8000512a:	4519                	li	a0,6
    8000512c:	8ca9                	xor	s1,s1,a0
    8000512e:	0001                	nop
    80005130:	01200e93          	li	t4,18
    80005134:	01000193          	li	gp,16
    80005138:	19d49a63          	bne	s1,t4,800052cc <fail>

000000008000513c <test_17>:
    8000513c:	44d1                	li	s1,20
    8000513e:	4519                	li	a0,6
    80005140:	8cc9                	or	s1,s1,a0
    80005142:	0001                	nop
    80005144:	01600e93          	li	t4,22
    80005148:	01100193          	li	gp,17
    8000514c:	19d49063          	bne	s1,t4,800052cc <fail>

0000000080005150 <test_18>:
    80005150:	44d1                	li	s1,20
    80005152:	4519                	li	a0,6
    80005154:	8ce9                	and	s1,s1,a0
    80005156:	0001                	nop
    80005158:	00400e93          	li	t4,4
    8000515c:	01200193          	li	gp,18
    80005160:	17d49663          	bne	s1,t4,800052cc <fail>

0000000080005164 <test_19>:
    80005164:	800004b7          	lui	s1,0x80000
    80005168:	fff4849b          	addiw	s1,s1,-1
    8000516c:	557d                	li	a0,-1
    8000516e:	9c89                	subw	s1,s1,a0
    80005170:	80000eb7          	lui	t4,0x80000
    80005174:	01300193          	li	gp,19
    80005178:	15d49a63          	bne	s1,t4,800052cc <fail>

000000008000517c <test_20>:
    8000517c:	800004b7          	lui	s1,0x80000
    80005180:	fff4849b          	addiw	s1,s1,-1
    80005184:	4505                	li	a0,1
    80005186:	9ca9                	addw	s1,s1,a0
    80005188:	80000eb7          	lui	t4,0x80000
    8000518c:	01400193          	li	gp,20
    80005190:	13d49e63          	bne	s1,t4,800052cc <fail>

0000000080005194 <test_21>:
    80005194:	00001437          	lui	s0,0x1
    80005198:	2344041b          	addiw	s0,s0,564
    8000519c:	0412                	slli	s0,s0,0x4
    8000519e:	0001                	nop
    800051a0:	00012eb7          	lui	t4,0x12
    800051a4:	340e8e9b          	addiw	t4,t4,832
    800051a8:	01500193          	li	gp,21
    800051ac:	13d41063          	bne	s0,t4,800052cc <fail>

00000000800051b0 <test_30>:
    800051b0:	4081                	li	ra,0
    800051b2:	a011                	j	800051b6 <test_30+0x6>
    800051b4:	a011                	j	800051b8 <test_30+0x8>
    800051b6:	a011                	j	800051ba <test_30+0xa>
    800051b8:	aa11                	j	800052cc <fail>
    800051ba:	0001                	nop
    800051bc:	00000e93          	li	t4,0
    800051c0:	01e00193          	li	gp,30
    800051c4:	11d09463          	bne	ra,t4,800052cc <fail>

00000000800051c8 <test_31>:
    800051c8:	4501                	li	a0,0
    800051ca:	c111                	beqz	a0,800051ce <test_31+0x6>
    800051cc:	a011                	j	800051d0 <test_31+0x8>
    800051ce:	a011                	j	800051d2 <test_31+0xa>
    800051d0:	a8f5                	j	800052cc <fail>
    800051d2:	0001                	nop
    800051d4:	00000e93          	li	t4,0
    800051d8:	01f00193          	li	gp,31
    800051dc:	0fd01863          	bne	zero,t4,800052cc <fail>

00000000800051e0 <test_32>:
    800051e0:	4505                	li	a0,1
    800051e2:	e111                	bnez	a0,800051e6 <test_32+0x6>
    800051e4:	a011                	j	800051e8 <test_32+0x8>
    800051e6:	a011                	j	800051ea <test_32+0xa>
    800051e8:	a0d5                	j	800052cc <fail>
    800051ea:	0001                	nop
    800051ec:	00000e93          	li	t4,0
    800051f0:	02000193          	li	gp,32
    800051f4:	0dd01c63          	bne	zero,t4,800052cc <fail>

00000000800051f8 <test_33>:
    800051f8:	4505                	li	a0,1
    800051fa:	c111                	beqz	a0,800051fe <test_33+0x6>
    800051fc:	a011                	j	80005200 <test_33+0x8>
    800051fe:	a0f9                	j	800052cc <fail>
    80005200:	00000e93          	li	t4,0
    80005204:	02100193          	li	gp,33
    80005208:	0dd01263          	bne	zero,t4,800052cc <fail>

000000008000520c <test_34>:
    8000520c:	4501                	li	a0,0
    8000520e:	e111                	bnez	a0,80005212 <test_34+0x6>
    80005210:	a011                	j	80005214 <test_34+0x8>
    80005212:	a86d                	j	800052cc <fail>
    80005214:	00000e93          	li	t4,0
    80005218:	02200193          	li	gp,34
    8000521c:	0bd01863          	bne	zero,t4,800052cc <fail>

0000000080005220 <test_35>:
    80005220:	00000297          	auipc	t0,0x0
    80005224:	00e28293          	addi	t0,t0,14 # 8000522e <test_35+0xe>
    80005228:	4081                	li	ra,0
    8000522a:	8282                	jr	t0
    8000522c:	a011                	j	80005230 <test_35+0x10>
    8000522e:	a011                	j	80005232 <test_35+0x12>
    80005230:	a871                	j	800052cc <fail>
    80005232:	0001                	nop
    80005234:	00000e93          	li	t4,0
    80005238:	02300193          	li	gp,35
    8000523c:	09d09863          	bne	ra,t4,800052cc <fail>

0000000080005240 <test_36>:
    80005240:	00000297          	auipc	t0,0x0
    80005244:	00e28293          	addi	t0,t0,14 # 8000524e <test_36+0xe>
    80005248:	4081                	li	ra,0
    8000524a:	9282                	jalr	t0
    8000524c:	a011                	j	80005250 <test_36+0x10>
    8000524e:	a011                	j	80005252 <test_36+0x12>
    80005250:	a8b5                	j	800052cc <fail>
    80005252:	405080b3          	sub	ra,ra,t0
    80005256:	0001                	nop
    80005258:	ffe00e93          	li	t4,-2
    8000525c:	02400193          	li	gp,36
    80005260:	07d09663          	bne	ra,t4,800052cc <fail>
    80005264:	ffffe117          	auipc	sp,0xffffe
    80005268:	dac10113          	addi	sp,sp,-596 # 80003010 <data>

000000008000526c <test_40>:
    8000526c:	4532                	lw	a0,12(sp)
    8000526e:	0505                	addi	a0,a0,1
    80005270:	c62a                	sw	a0,12(sp)
    80005272:	4632                	lw	a2,12(sp)
    80005274:	fedcceb7          	lui	t4,0xfedcc
    80005278:	a99e8e9b          	addiw	t4,t4,-1383
    8000527c:	02800193          	li	gp,40
    80005280:	05d61663          	bne	a2,t4,800052cc <fail>

0000000080005284 <test_41>:
    80005284:	6522                	ld	a0,8(sp)
    80005286:	0505                	addi	a0,a0,1
    80005288:	e42a                	sd	a0,8(sp)
    8000528a:	6622                	ld	a2,8(sp)
    8000528c:	fff6eeb7          	lui	t4,0xfff6e
    80005290:	5d5e8e9b          	addiw	t4,t4,1493
    80005294:	00ce9e93          	slli	t4,t4,0xc
    80005298:	cbbe8e93          	addi	t4,t4,-837 # fffffffffff6dcbb <_end+0xffffffff7ff624cb>
    8000529c:	00de9e93          	slli	t4,t4,0xd
    800052a0:	543e8e93          	addi	t4,t4,1347
    800052a4:	00ce9e93          	slli	t4,t4,0xc
    800052a8:	211e8e93          	addi	t4,t4,529
    800052ac:	02900193          	li	gp,41
    800052b0:	01d61e63          	bne	a2,t4,800052cc <fail>

00000000800052b4 <test_42>:
    800052b4:	12300513          	li	a0,291
    800052b8:	82aa                	mv	t0,a0
    800052ba:	92aa                	add	t0,t0,a0
    800052bc:	24600e93          	li	t4,582
    800052c0:	02a00193          	li	gp,42
    800052c4:	01d29463          	bne	t0,t4,800052cc <fail>
    800052c8:	00301a63          	bne	zero,gp,800052dc <pass>

00000000800052cc <fail>:
    800052cc:	00119513          	slli	a0,gp,0x1
    800052d0:	00050063          	beqz	a0,800052d0 <fail+0x4>
    800052d4:	00156513          	ori	a0,a0,1
    800052d8:	00000073          	ecall

00000000800052dc <pass>:
    800052dc:	00100513          	li	a0,1
    800052e0:	00000073          	ecall
    800052e4:	c0001073          	unimp
    800052e8:	0000                	unimp
    800052ea:	0000                	unimp
    800052ec:	0000                	unimp
    800052ee:	0000                	unimp
    800052f0:	0000                	unimp
    800052f2:	0000                	unimp
    800052f4:	0000                	unimp
    800052f6:	0000                	unimp
    800052f8:	0000                	unimp
    800052fa:	0000                	unimp
    800052fc:	0000                	unimp
    800052fe:	0000                	unimp
    80005300:	0000                	unimp
    80005302:	0000                	unimp
    80005304:	0000                	unimp
    80005306:	0000                	unimp
    80005308:	0000                	unimp
    8000530a:	0000                	unimp
    8000530c:	0000                	unimp
    8000530e:	0000                	unimp
    80005310:	0000                	unimp
    80005312:	0000                	unimp
    80005314:	0000                	unimp
    80005316:	0000                	unimp
    80005318:	0000                	unimp
    8000531a:	0000                	unimp
    8000531c:	0000                	unimp
    8000531e:	0000                	unimp
    80005320:	0000                	unimp
    80005322:	0000                	unimp
    80005324:	0000                	unimp
    80005326:	0000                	unimp
    80005328:	0000                	unimp
    8000532a:	0000                	unimp
    8000532c:	0000                	unimp
    8000532e:	0000                	unimp
    80005330:	0000                	unimp
    80005332:	0000                	unimp
    80005334:	0000                	unimp
    80005336:	0000                	unimp
    80005338:	0000                	unimp
    8000533a:	0000                	unimp
    8000533c:	0000                	unimp
    8000533e:	0000                	unimp
    80005340:	0000                	unimp
    80005342:	0000                	unimp
    80005344:	0000                	unimp
    80005346:	0000                	unimp
    80005348:	0000                	unimp
    8000534a:	0000                	unimp
    8000534c:	0000                	unimp
    8000534e:	0000                	unimp
    80005350:	0000                	unimp
    80005352:	0000                	unimp
    80005354:	0000                	unimp
    80005356:	0000                	unimp
    80005358:	0000                	unimp
    8000535a:	0000                	unimp
    8000535c:	0000                	unimp
    8000535e:	0000                	unimp
    80005360:	0000                	unimp
    80005362:	0000                	unimp
    80005364:	0000                	unimp
    80005366:	0000                	unimp
    80005368:	0000                	unimp
    8000536a:	0000                	unimp
    8000536c:	0000                	unimp
    8000536e:	0000                	unimp
    80005370:	0000                	unimp
    80005372:	0000                	unimp
    80005374:	0000                	unimp
    80005376:	0000                	unimp
    80005378:	0000                	unimp
    8000537a:	0000                	unimp
    8000537c:	0000                	unimp
    8000537e:	0000                	unimp
    80005380:	0000                	unimp
    80005382:	0000                	unimp
    80005384:	0000                	unimp
    80005386:	0000                	unimp
    80005388:	0000                	unimp
    8000538a:	0000                	unimp
    8000538c:	0000                	unimp
    8000538e:	0000                	unimp
    80005390:	0000                	unimp
    80005392:	0000                	unimp
    80005394:	0000                	unimp
    80005396:	0000                	unimp
    80005398:	0000                	unimp
    8000539a:	0000                	unimp
    8000539c:	0000                	unimp
    8000539e:	0000                	unimp
    800053a0:	0000                	unimp
    800053a2:	0000                	unimp
    800053a4:	0000                	unimp
    800053a6:	0000                	unimp
    800053a8:	0000                	unimp
    800053aa:	0000                	unimp
    800053ac:	0000                	unimp
    800053ae:	0000                	unimp
    800053b0:	0000                	unimp
    800053b2:	0000                	unimp
    800053b4:	0000                	unimp
    800053b6:	0000                	unimp
    800053b8:	0000                	unimp
    800053ba:	0000                	unimp
    800053bc:	0000                	unimp
    800053be:	0000                	unimp
    800053c0:	0000                	unimp
    800053c2:	0000                	unimp
    800053c4:	0000                	unimp
    800053c6:	0000                	unimp
    800053c8:	0000                	unimp
    800053ca:	0000                	unimp
    800053cc:	0000                	unimp
    800053ce:	0000                	unimp
    800053d0:	0000                	unimp
    800053d2:	0000                	unimp
    800053d4:	0000                	unimp
    800053d6:	0000                	unimp
    800053d8:	0000                	unimp
    800053da:	0000                	unimp
    800053dc:	0000                	unimp
    800053de:	0000                	unimp
    800053e0:	0000                	unimp
    800053e2:	0000                	unimp
    800053e4:	0000                	unimp
    800053e6:	0000                	unimp
    800053e8:	0000                	unimp
    800053ea:	0000                	unimp
    800053ec:	0000                	unimp
    800053ee:	0000                	unimp
    800053f0:	0000                	unimp
    800053f2:	0000                	unimp
    800053f4:	0000                	unimp
    800053f6:	0000                	unimp
    800053f8:	0000                	unimp
    800053fa:	0000                	unimp
    800053fc:	0000                	unimp
    800053fe:	0000                	unimp
    80005400:	0000                	unimp
    80005402:	0000                	unimp
    80005404:	0000                	unimp
    80005406:	0000                	unimp
    80005408:	0000                	unimp
    8000540a:	0000                	unimp
    8000540c:	0000                	unimp
    8000540e:	0000                	unimp
    80005410:	0000                	unimp
    80005412:	0000                	unimp
    80005414:	0000                	unimp
    80005416:	0000                	unimp
    80005418:	0000                	unimp
    8000541a:	0000                	unimp
    8000541c:	0000                	unimp
    8000541e:	0000                	unimp
    80005420:	0000                	unimp
    80005422:	0000                	unimp
    80005424:	0000                	unimp
    80005426:	0000                	unimp
    80005428:	0000                	unimp
    8000542a:	0000                	unimp
    8000542c:	0000                	unimp
    8000542e:	0000                	unimp
    80005430:	0000                	unimp
    80005432:	0000                	unimp
    80005434:	0000                	unimp
    80005436:	0000                	unimp
    80005438:	0000                	unimp
    8000543a:	0000                	unimp
    8000543c:	0000                	unimp
    8000543e:	0000                	unimp
    80005440:	0000                	unimp
    80005442:	0000                	unimp
    80005444:	0000                	unimp
    80005446:	0000                	unimp
    80005448:	0000                	unimp
    8000544a:	0000                	unimp
    8000544c:	0000                	unimp
    8000544e:	0000                	unimp
    80005450:	0000                	unimp
    80005452:	0000                	unimp
    80005454:	0000                	unimp
    80005456:	0000                	unimp
    80005458:	0000                	unimp
    8000545a:	0000                	unimp
    8000545c:	0000                	unimp
    8000545e:	0000                	unimp
    80005460:	0000                	unimp
    80005462:	0000                	unimp
    80005464:	0000                	unimp
    80005466:	0000                	unimp
    80005468:	0000                	unimp
    8000546a:	0000                	unimp
    8000546c:	0000                	unimp
    8000546e:	0000                	unimp
    80005470:	0000                	unimp
    80005472:	0000                	unimp
    80005474:	0000                	unimp
    80005476:	0000                	unimp
    80005478:	0000                	unimp
    8000547a:	0000                	unimp
    8000547c:	0000                	unimp
    8000547e:	0000                	unimp
    80005480:	0000                	unimp
    80005482:	0000                	unimp
    80005484:	0000                	unimp
    80005486:	0000                	unimp
    80005488:	0000                	unimp
    8000548a:	0000                	unimp
    8000548c:	0000                	unimp
    8000548e:	0000                	unimp
    80005490:	0000                	unimp
    80005492:	0000                	unimp
    80005494:	0000                	unimp
    80005496:	0000                	unimp
    80005498:	0000                	unimp
    8000549a:	0000                	unimp
    8000549c:	0000                	unimp
    8000549e:	0000                	unimp
    800054a0:	0000                	unimp
    800054a2:	0000                	unimp
    800054a4:	0000                	unimp
    800054a6:	0000                	unimp
    800054a8:	0000                	unimp
    800054aa:	0000                	unimp
    800054ac:	0000                	unimp
    800054ae:	0000                	unimp
    800054b0:	0000                	unimp
    800054b2:	0000                	unimp
    800054b4:	0000                	unimp
    800054b6:	0000                	unimp
    800054b8:	0000                	unimp
    800054ba:	0000                	unimp
    800054bc:	0000                	unimp
    800054be:	0000                	unimp
    800054c0:	0000                	unimp
    800054c2:	0000                	unimp
    800054c4:	0000                	unimp
    800054c6:	0000                	unimp
    800054c8:	0000                	unimp
    800054ca:	0000                	unimp
    800054cc:	0000                	unimp
    800054ce:	0000                	unimp
    800054d0:	0000                	unimp
    800054d2:	0000                	unimp
    800054d4:	0000                	unimp
    800054d6:	0000                	unimp
    800054d8:	0000                	unimp
    800054da:	0000                	unimp
    800054dc:	0000                	unimp
    800054de:	0000                	unimp
    800054e0:	0000                	unimp
    800054e2:	0000                	unimp
    800054e4:	0000                	unimp
    800054e6:	0000                	unimp
    800054e8:	0000                	unimp
    800054ea:	0000                	unimp
    800054ec:	0000                	unimp
    800054ee:	0000                	unimp
    800054f0:	0000                	unimp
    800054f2:	0000                	unimp
    800054f4:	0000                	unimp
    800054f6:	0000                	unimp
    800054f8:	0000                	unimp
    800054fa:	0000                	unimp
    800054fc:	0000                	unimp
    800054fe:	0000                	unimp
    80005500:	0000                	unimp
    80005502:	0000                	unimp
    80005504:	0000                	unimp
    80005506:	0000                	unimp
    80005508:	0000                	unimp
    8000550a:	0000                	unimp
    8000550c:	0000                	unimp
    8000550e:	0000                	unimp
    80005510:	0000                	unimp
    80005512:	0000                	unimp
    80005514:	0000                	unimp
    80005516:	0000                	unimp
    80005518:	0000                	unimp
    8000551a:	0000                	unimp
    8000551c:	0000                	unimp
    8000551e:	0000                	unimp
    80005520:	0000                	unimp
    80005522:	0000                	unimp
    80005524:	0000                	unimp
    80005526:	0000                	unimp
    80005528:	0000                	unimp
    8000552a:	0000                	unimp
    8000552c:	0000                	unimp
    8000552e:	0000                	unimp
    80005530:	0000                	unimp
    80005532:	0000                	unimp
    80005534:	0000                	unimp
    80005536:	0000                	unimp
    80005538:	0000                	unimp
    8000553a:	0000                	unimp
    8000553c:	0000                	unimp
    8000553e:	0000                	unimp
    80005540:	0000                	unimp
    80005542:	0000                	unimp
    80005544:	0000                	unimp
    80005546:	0000                	unimp
    80005548:	0000                	unimp
    8000554a:	0000                	unimp
    8000554c:	0000                	unimp
    8000554e:	0000                	unimp
    80005550:	0000                	unimp
    80005552:	0000                	unimp
    80005554:	0000                	unimp
    80005556:	0000                	unimp
    80005558:	0000                	unimp
    8000555a:	0000                	unimp
    8000555c:	0000                	unimp
    8000555e:	0000                	unimp
    80005560:	0000                	unimp
    80005562:	0000                	unimp
    80005564:	0000                	unimp
    80005566:	0000                	unimp
    80005568:	0000                	unimp
    8000556a:	0000                	unimp
    8000556c:	0000                	unimp
    8000556e:	0000                	unimp
    80005570:	0000                	unimp
    80005572:	0000                	unimp
    80005574:	0000                	unimp
    80005576:	0000                	unimp
    80005578:	0000                	unimp
    8000557a:	0000                	unimp
    8000557c:	0000                	unimp
    8000557e:	0000                	unimp
    80005580:	0000                	unimp
    80005582:	0000                	unimp
    80005584:	0000                	unimp
    80005586:	0000                	unimp
    80005588:	0000                	unimp
    8000558a:	0000                	unimp
    8000558c:	0000                	unimp
    8000558e:	0000                	unimp
    80005590:	0000                	unimp
    80005592:	0000                	unimp
    80005594:	0000                	unimp
    80005596:	0000                	unimp
    80005598:	0000                	unimp
    8000559a:	0000                	unimp
    8000559c:	0000                	unimp
    8000559e:	0000                	unimp
    800055a0:	0000                	unimp
    800055a2:	0000                	unimp
    800055a4:	0000                	unimp
    800055a6:	0000                	unimp
    800055a8:	0000                	unimp
    800055aa:	0000                	unimp
    800055ac:	0000                	unimp
    800055ae:	0000                	unimp
    800055b0:	0000                	unimp
    800055b2:	0000                	unimp
    800055b4:	0000                	unimp
    800055b6:	0000                	unimp
    800055b8:	0000                	unimp
    800055ba:	0000                	unimp
    800055bc:	0000                	unimp
    800055be:	0000                	unimp
    800055c0:	0000                	unimp
    800055c2:	0000                	unimp
    800055c4:	0000                	unimp
    800055c6:	0000                	unimp
    800055c8:	0000                	unimp
    800055ca:	0000                	unimp
    800055cc:	0000                	unimp
    800055ce:	0000                	unimp
    800055d0:	0000                	unimp
    800055d2:	0000                	unimp
    800055d4:	0000                	unimp
    800055d6:	0000                	unimp
    800055d8:	0000                	unimp
    800055da:	0000                	unimp
    800055dc:	0000                	unimp
    800055de:	0000                	unimp
    800055e0:	0000                	unimp
    800055e2:	0000                	unimp
    800055e4:	0000                	unimp
    800055e6:	0000                	unimp
    800055e8:	0000                	unimp
    800055ea:	0000                	unimp
    800055ec:	0000                	unimp
    800055ee:	0000                	unimp
    800055f0:	0000                	unimp
    800055f2:	0000                	unimp
    800055f4:	0000                	unimp
    800055f6:	0000                	unimp
    800055f8:	0000                	unimp
    800055fa:	0000                	unimp
    800055fc:	0000                	unimp
    800055fe:	0000                	unimp
    80005600:	0000                	unimp
    80005602:	0000                	unimp
    80005604:	0000                	unimp
    80005606:	0000                	unimp
    80005608:	0000                	unimp
    8000560a:	0000                	unimp
    8000560c:	0000                	unimp
    8000560e:	0000                	unimp
    80005610:	0000                	unimp
    80005612:	0000                	unimp
    80005614:	0000                	unimp
    80005616:	0000                	unimp
    80005618:	0000                	unimp
    8000561a:	0000                	unimp
    8000561c:	0000                	unimp
    8000561e:	0000                	unimp
    80005620:	0000                	unimp
    80005622:	0000                	unimp
    80005624:	0000                	unimp
    80005626:	0000                	unimp
    80005628:	0000                	unimp
    8000562a:	0000                	unimp
    8000562c:	0000                	unimp
    8000562e:	0000                	unimp
    80005630:	0000                	unimp
    80005632:	0000                	unimp
    80005634:	0000                	unimp
    80005636:	0000                	unimp
    80005638:	0000                	unimp
    8000563a:	0000                	unimp
    8000563c:	0000                	unimp
    8000563e:	0000                	unimp
    80005640:	0000                	unimp
    80005642:	0000                	unimp
    80005644:	0000                	unimp
    80005646:	0000                	unimp
    80005648:	0000                	unimp
    8000564a:	0000                	unimp
    8000564c:	0000                	unimp
    8000564e:	0000                	unimp
    80005650:	0000                	unimp
    80005652:	0000                	unimp
    80005654:	0000                	unimp
    80005656:	0000                	unimp
    80005658:	0000                	unimp
    8000565a:	0000                	unimp
    8000565c:	0000                	unimp
    8000565e:	0000                	unimp
    80005660:	0000                	unimp
    80005662:	0000                	unimp
    80005664:	0000                	unimp
    80005666:	0000                	unimp
    80005668:	0000                	unimp
    8000566a:	0000                	unimp
    8000566c:	0000                	unimp
    8000566e:	0000                	unimp
    80005670:	0000                	unimp
    80005672:	0000                	unimp
    80005674:	0000                	unimp
    80005676:	0000                	unimp
    80005678:	0000                	unimp
    8000567a:	0000                	unimp
    8000567c:	0000                	unimp
    8000567e:	0000                	unimp
    80005680:	0000                	unimp
    80005682:	0000                	unimp
    80005684:	0000                	unimp
    80005686:	0000                	unimp
    80005688:	0000                	unimp
    8000568a:	0000                	unimp
    8000568c:	0000                	unimp
    8000568e:	0000                	unimp
    80005690:	0000                	unimp
    80005692:	0000                	unimp
    80005694:	0000                	unimp
    80005696:	0000                	unimp
    80005698:	0000                	unimp
    8000569a:	0000                	unimp
    8000569c:	0000                	unimp
    8000569e:	0000                	unimp
    800056a0:	0000                	unimp
    800056a2:	0000                	unimp
    800056a4:	0000                	unimp
    800056a6:	0000                	unimp
    800056a8:	0000                	unimp
    800056aa:	0000                	unimp
    800056ac:	0000                	unimp
    800056ae:	0000                	unimp
    800056b0:	0000                	unimp
    800056b2:	0000                	unimp
    800056b4:	0000                	unimp
    800056b6:	0000                	unimp
    800056b8:	0000                	unimp
    800056ba:	0000                	unimp
    800056bc:	0000                	unimp
    800056be:	0000                	unimp
    800056c0:	0000                	unimp
    800056c2:	0000                	unimp
    800056c4:	0000                	unimp
    800056c6:	0000                	unimp
    800056c8:	0000                	unimp
    800056ca:	0000                	unimp
    800056cc:	0000                	unimp
    800056ce:	0000                	unimp
    800056d0:	0000                	unimp
    800056d2:	0000                	unimp
    800056d4:	0000                	unimp
    800056d6:	0000                	unimp
    800056d8:	0000                	unimp
    800056da:	0000                	unimp
    800056dc:	0000                	unimp
    800056de:	0000                	unimp
    800056e0:	0000                	unimp
    800056e2:	0000                	unimp
    800056e4:	0000                	unimp
    800056e6:	0000                	unimp
    800056e8:	0000                	unimp
    800056ea:	0000                	unimp
    800056ec:	0000                	unimp
    800056ee:	0000                	unimp
    800056f0:	0000                	unimp
    800056f2:	0000                	unimp
    800056f4:	0000                	unimp
    800056f6:	0000                	unimp
    800056f8:	0000                	unimp
    800056fa:	0000                	unimp
    800056fc:	0000                	unimp
    800056fe:	0000                	unimp
    80005700:	0000                	unimp
    80005702:	0000                	unimp
    80005704:	0000                	unimp
    80005706:	0000                	unimp
    80005708:	0000                	unimp
    8000570a:	0000                	unimp
    8000570c:	0000                	unimp
    8000570e:	0000                	unimp
    80005710:	0000                	unimp
    80005712:	0000                	unimp
    80005714:	0000                	unimp
    80005716:	0000                	unimp
    80005718:	0000                	unimp
    8000571a:	0000                	unimp
    8000571c:	0000                	unimp
    8000571e:	0000                	unimp
    80005720:	0000                	unimp
    80005722:	0000                	unimp
    80005724:	0000                	unimp
    80005726:	0000                	unimp
    80005728:	0000                	unimp
    8000572a:	0000                	unimp
    8000572c:	0000                	unimp
    8000572e:	0000                	unimp
    80005730:	0000                	unimp
    80005732:	0000                	unimp
    80005734:	0000                	unimp
    80005736:	0000                	unimp
    80005738:	0000                	unimp
    8000573a:	0000                	unimp
    8000573c:	0000                	unimp
    8000573e:	0000                	unimp
    80005740:	0000                	unimp
    80005742:	0000                	unimp
    80005744:	0000                	unimp
    80005746:	0000                	unimp
    80005748:	0000                	unimp
    8000574a:	0000                	unimp
    8000574c:	0000                	unimp
    8000574e:	0000                	unimp
    80005750:	0000                	unimp
    80005752:	0000                	unimp
    80005754:	0000                	unimp
    80005756:	0000                	unimp
    80005758:	0000                	unimp
    8000575a:	0000                	unimp
    8000575c:	0000                	unimp
    8000575e:	0000                	unimp
    80005760:	0000                	unimp
    80005762:	0000                	unimp
    80005764:	0000                	unimp
    80005766:	0000                	unimp
    80005768:	0000                	unimp
    8000576a:	0000                	unimp
    8000576c:	0000                	unimp
    8000576e:	0000                	unimp
    80005770:	0000                	unimp
    80005772:	0000                	unimp
    80005774:	0000                	unimp
    80005776:	0000                	unimp
    80005778:	0000                	unimp
    8000577a:	0000                	unimp
    8000577c:	0000                	unimp
    8000577e:	0000                	unimp
    80005780:	0000                	unimp
    80005782:	0000                	unimp
    80005784:	0000                	unimp
    80005786:	0000                	unimp
    80005788:	0000                	unimp
    8000578a:	0000                	unimp
    8000578c:	0000                	unimp
    8000578e:	0000                	unimp
    80005790:	0000                	unimp
    80005792:	0000                	unimp
    80005794:	0000                	unimp
    80005796:	0000                	unimp
    80005798:	0000                	unimp
    8000579a:	0000                	unimp
    8000579c:	0000                	unimp
    8000579e:	0000                	unimp
    800057a0:	0000                	unimp
    800057a2:	0000                	unimp
    800057a4:	0000                	unimp
    800057a6:	0000                	unimp
    800057a8:	0000                	unimp
    800057aa:	0000                	unimp
    800057ac:	0000                	unimp
    800057ae:	0000                	unimp
    800057b0:	0000                	unimp
    800057b2:	0000                	unimp
    800057b4:	0000                	unimp
    800057b6:	0000                	unimp
    800057b8:	0000                	unimp
    800057ba:	0000                	unimp
    800057bc:	0000                	unimp
    800057be:	0000                	unimp
    800057c0:	0000                	unimp
    800057c2:	0000                	unimp
    800057c4:	0000                	unimp
    800057c6:	0000                	unimp
    800057c8:	0000                	unimp
    800057ca:	0000                	unimp
    800057cc:	0000                	unimp
    800057ce:	0000                	unimp
    800057d0:	0000                	unimp
    800057d2:	0000                	unimp
    800057d4:	0000                	unimp
    800057d6:	0000                	unimp
    800057d8:	0000                	unimp
    800057da:	0000                	unimp
    800057dc:	0000                	unimp
    800057de:	0000                	unimp
    800057e0:	0000                	unimp
    800057e2:	0000                	unimp
    800057e4:	0000                	unimp
    800057e6:	0000                	unimp
    800057e8:	0000                	unimp
    800057ea:	0000                	unimp
    800057ec:	0000                	unimp
    800057ee:	0000                	unimp
    800057f0:	0000                	unimp
    800057f2:	0000                	unimp
    800057f4:	0000                	unimp
    800057f6:	0000                	unimp
    800057f8:	0000                	unimp
    800057fa:	0000                	unimp
    800057fc:	0000                	unimp
    800057fe:	0000                	unimp
    80005800:	0000                	unimp
    80005802:	0000                	unimp
    80005804:	0000                	unimp
    80005806:	0000                	unimp
    80005808:	0000                	unimp
    8000580a:	0000                	unimp
    8000580c:	0000                	unimp
    8000580e:	0000                	unimp
    80005810:	0000                	unimp
    80005812:	0000                	unimp
    80005814:	0000                	unimp
    80005816:	0000                	unimp
    80005818:	0000                	unimp
    8000581a:	0000                	unimp
    8000581c:	0000                	unimp
    8000581e:	0000                	unimp
    80005820:	0000                	unimp
    80005822:	0000                	unimp
    80005824:	0000                	unimp
    80005826:	0000                	unimp
    80005828:	0000                	unimp
    8000582a:	0000                	unimp
    8000582c:	0000                	unimp
    8000582e:	0000                	unimp
    80005830:	0000                	unimp
    80005832:	0000                	unimp
    80005834:	0000                	unimp
    80005836:	0000                	unimp
    80005838:	0000                	unimp
    8000583a:	0000                	unimp
    8000583c:	0000                	unimp
    8000583e:	0000                	unimp
    80005840:	0000                	unimp
    80005842:	0000                	unimp
    80005844:	0000                	unimp
    80005846:	0000                	unimp
    80005848:	0000                	unimp
    8000584a:	0000                	unimp
    8000584c:	0000                	unimp
    8000584e:	0000                	unimp
    80005850:	0000                	unimp
    80005852:	0000                	unimp
    80005854:	0000                	unimp
    80005856:	0000                	unimp
    80005858:	0000                	unimp
    8000585a:	0000                	unimp
    8000585c:	0000                	unimp
    8000585e:	0000                	unimp
    80005860:	0000                	unimp
    80005862:	0000                	unimp
    80005864:	0000                	unimp
    80005866:	0000                	unimp
    80005868:	0000                	unimp
    8000586a:	0000                	unimp
    8000586c:	0000                	unimp
    8000586e:	0000                	unimp
    80005870:	0000                	unimp
    80005872:	0000                	unimp
    80005874:	0000                	unimp
    80005876:	0000                	unimp
    80005878:	0000                	unimp
    8000587a:	0000                	unimp
    8000587c:	0000                	unimp
    8000587e:	0000                	unimp
    80005880:	0000                	unimp
    80005882:	0000                	unimp
    80005884:	0000                	unimp
    80005886:	0000                	unimp
    80005888:	0000                	unimp
    8000588a:	0000                	unimp
    8000588c:	0000                	unimp
    8000588e:	0000                	unimp
    80005890:	0000                	unimp
    80005892:	0000                	unimp
    80005894:	0000                	unimp
    80005896:	0000                	unimp
    80005898:	0000                	unimp
    8000589a:	0000                	unimp
    8000589c:	0000                	unimp
    8000589e:	0000                	unimp
    800058a0:	0000                	unimp
    800058a2:	0000                	unimp
    800058a4:	0000                	unimp
    800058a6:	0000                	unimp
    800058a8:	0000                	unimp
    800058aa:	0000                	unimp
    800058ac:	0000                	unimp
    800058ae:	0000                	unimp
    800058b0:	0000                	unimp
    800058b2:	0000                	unimp
    800058b4:	0000                	unimp
    800058b6:	0000                	unimp
    800058b8:	0000                	unimp
    800058ba:	0000                	unimp
    800058bc:	0000                	unimp
    800058be:	0000                	unimp
    800058c0:	0000                	unimp
    800058c2:	0000                	unimp
    800058c4:	0000                	unimp
    800058c6:	0000                	unimp
    800058c8:	0000                	unimp
    800058ca:	0000                	unimp
    800058cc:	0000                	unimp
    800058ce:	0000                	unimp
    800058d0:	0000                	unimp
    800058d2:	0000                	unimp
    800058d4:	0000                	unimp
    800058d6:	0000                	unimp
    800058d8:	0000                	unimp
    800058da:	0000                	unimp
    800058dc:	0000                	unimp
    800058de:	0000                	unimp
    800058e0:	0000                	unimp
    800058e2:	0000                	unimp
    800058e4:	0000                	unimp
    800058e6:	0000                	unimp
    800058e8:	0000                	unimp
    800058ea:	0000                	unimp
    800058ec:	0000                	unimp
    800058ee:	0000                	unimp
    800058f0:	0000                	unimp
    800058f2:	0000                	unimp
    800058f4:	0000                	unimp
    800058f6:	0000                	unimp
    800058f8:	0000                	unimp
    800058fa:	0000                	unimp
    800058fc:	0000                	unimp
    800058fe:	0000                	unimp
    80005900:	0000                	unimp
    80005902:	0000                	unimp
    80005904:	0000                	unimp
    80005906:	0000                	unimp
    80005908:	0000                	unimp
    8000590a:	0000                	unimp
    8000590c:	0000                	unimp
    8000590e:	0000                	unimp
    80005910:	0000                	unimp
    80005912:	0000                	unimp
    80005914:	0000                	unimp
    80005916:	0000                	unimp
    80005918:	0000                	unimp
    8000591a:	0000                	unimp
    8000591c:	0000                	unimp
    8000591e:	0000                	unimp
    80005920:	0000                	unimp
    80005922:	0000                	unimp
    80005924:	0000                	unimp
    80005926:	0000                	unimp
    80005928:	0000                	unimp
    8000592a:	0000                	unimp
    8000592c:	0000                	unimp
    8000592e:	0000                	unimp
    80005930:	0000                	unimp
    80005932:	0000                	unimp
    80005934:	0000                	unimp
    80005936:	0000                	unimp
    80005938:	0000                	unimp
    8000593a:	0000                	unimp
    8000593c:	0000                	unimp
    8000593e:	0000                	unimp
    80005940:	0000                	unimp
    80005942:	0000                	unimp
    80005944:	0000                	unimp
    80005946:	0000                	unimp
    80005948:	0000                	unimp
    8000594a:	0000                	unimp
    8000594c:	0000                	unimp
    8000594e:	0000                	unimp
    80005950:	0000                	unimp
    80005952:	0000                	unimp
    80005954:	0000                	unimp
    80005956:	0000                	unimp
    80005958:	0000                	unimp
    8000595a:	0000                	unimp
    8000595c:	0000                	unimp
    8000595e:	0000                	unimp
    80005960:	0000                	unimp
    80005962:	0000                	unimp
    80005964:	0000                	unimp
    80005966:	0000                	unimp
    80005968:	0000                	unimp
    8000596a:	0000                	unimp
    8000596c:	0000                	unimp
    8000596e:	0000                	unimp
    80005970:	0000                	unimp
    80005972:	0000                	unimp
    80005974:	0000                	unimp
    80005976:	0000                	unimp
    80005978:	0000                	unimp
    8000597a:	0000                	unimp
    8000597c:	0000                	unimp
    8000597e:	0000                	unimp
    80005980:	0000                	unimp
    80005982:	0000                	unimp
    80005984:	0000                	unimp
    80005986:	0000                	unimp
    80005988:	0000                	unimp
    8000598a:	0000                	unimp
    8000598c:	0000                	unimp
    8000598e:	0000                	unimp
    80005990:	0000                	unimp
    80005992:	0000                	unimp
    80005994:	0000                	unimp
    80005996:	0000                	unimp
    80005998:	0000                	unimp
    8000599a:	0000                	unimp
    8000599c:	0000                	unimp
    8000599e:	0000                	unimp
    800059a0:	0000                	unimp
    800059a2:	0000                	unimp
    800059a4:	0000                	unimp
    800059a6:	0000                	unimp
    800059a8:	0000                	unimp
    800059aa:	0000                	unimp
    800059ac:	0000                	unimp
    800059ae:	0000                	unimp
    800059b0:	0000                	unimp
    800059b2:	0000                	unimp
    800059b4:	0000                	unimp
    800059b6:	0000                	unimp
    800059b8:	0000                	unimp
    800059ba:	0000                	unimp
    800059bc:	0000                	unimp
    800059be:	0000                	unimp
    800059c0:	0000                	unimp
    800059c2:	0000                	unimp
    800059c4:	0000                	unimp
    800059c6:	0000                	unimp
    800059c8:	0000                	unimp
    800059ca:	0000                	unimp
    800059cc:	0000                	unimp
    800059ce:	0000                	unimp
    800059d0:	0000                	unimp
    800059d2:	0000                	unimp
    800059d4:	0000                	unimp
    800059d6:	0000                	unimp
    800059d8:	0000                	unimp
    800059da:	0000                	unimp
    800059dc:	0000                	unimp
    800059de:	0000                	unimp
    800059e0:	0000                	unimp
    800059e2:	0000                	unimp
    800059e4:	0000                	unimp
    800059e6:	0000                	unimp
    800059e8:	0000                	unimp
    800059ea:	0000                	unimp
    800059ec:	0000                	unimp
    800059ee:	0000                	unimp
    800059f0:	0000                	unimp
    800059f2:	0000                	unimp
    800059f4:	0000                	unimp
    800059f6:	0000                	unimp
    800059f8:	0000                	unimp
    800059fa:	0000                	unimp
    800059fc:	0000                	unimp
    800059fe:	0000                	unimp
    80005a00:	0000                	unimp
    80005a02:	0000                	unimp
    80005a04:	0000                	unimp
    80005a06:	0000                	unimp
    80005a08:	0000                	unimp
    80005a0a:	0000                	unimp
    80005a0c:	0000                	unimp
    80005a0e:	0000                	unimp
    80005a10:	0000                	unimp
    80005a12:	0000                	unimp
    80005a14:	0000                	unimp
    80005a16:	0000                	unimp
    80005a18:	0000                	unimp
    80005a1a:	0000                	unimp
    80005a1c:	0000                	unimp
    80005a1e:	0000                	unimp
    80005a20:	0000                	unimp
    80005a22:	0000                	unimp
    80005a24:	0000                	unimp
    80005a26:	0000                	unimp
    80005a28:	0000                	unimp
    80005a2a:	0000                	unimp
    80005a2c:	0000                	unimp
    80005a2e:	0000                	unimp
    80005a30:	0000                	unimp
    80005a32:	0000                	unimp
    80005a34:	0000                	unimp
    80005a36:	0000                	unimp
    80005a38:	0000                	unimp
    80005a3a:	0000                	unimp
    80005a3c:	0000                	unimp
    80005a3e:	0000                	unimp
    80005a40:	0000                	unimp
    80005a42:	0000                	unimp
    80005a44:	0000                	unimp
    80005a46:	0000                	unimp
    80005a48:	0000                	unimp
    80005a4a:	0000                	unimp
    80005a4c:	0000                	unimp
    80005a4e:	0000                	unimp
    80005a50:	0000                	unimp
    80005a52:	0000                	unimp
    80005a54:	0000                	unimp
    80005a56:	0000                	unimp
    80005a58:	0000                	unimp
    80005a5a:	0000                	unimp
    80005a5c:	0000                	unimp
    80005a5e:	0000                	unimp
    80005a60:	0000                	unimp
    80005a62:	0000                	unimp
    80005a64:	0000                	unimp
    80005a66:	0000                	unimp
    80005a68:	0000                	unimp
    80005a6a:	0000                	unimp
    80005a6c:	0000                	unimp
    80005a6e:	0000                	unimp
    80005a70:	0000                	unimp
    80005a72:	0000                	unimp
    80005a74:	0000                	unimp
    80005a76:	0000                	unimp
    80005a78:	0000                	unimp
    80005a7a:	0000                	unimp
    80005a7c:	0000                	unimp
    80005a7e:	0000                	unimp
    80005a80:	0000                	unimp
    80005a82:	0000                	unimp
    80005a84:	0000                	unimp
    80005a86:	0000                	unimp
    80005a88:	0000                	unimp
    80005a8a:	0000                	unimp
    80005a8c:	0000                	unimp
    80005a8e:	0000                	unimp
    80005a90:	0000                	unimp
    80005a92:	0000                	unimp
    80005a94:	0000                	unimp
    80005a96:	0000                	unimp
    80005a98:	0000                	unimp
    80005a9a:	0000                	unimp
    80005a9c:	0000                	unimp
    80005a9e:	0000                	unimp
    80005aa0:	0000                	unimp
    80005aa2:	0000                	unimp
    80005aa4:	0000                	unimp
    80005aa6:	0000                	unimp
    80005aa8:	0000                	unimp
    80005aaa:	0000                	unimp
    80005aac:	0000                	unimp
    80005aae:	0000                	unimp
    80005ab0:	0000                	unimp
    80005ab2:	0000                	unimp
    80005ab4:	0000                	unimp
    80005ab6:	0000                	unimp
    80005ab8:	0000                	unimp
    80005aba:	0000                	unimp
    80005abc:	0000                	unimp
    80005abe:	0000                	unimp
    80005ac0:	0000                	unimp
    80005ac2:	0000                	unimp
    80005ac4:	0000                	unimp
    80005ac6:	0000                	unimp
    80005ac8:	0000                	unimp
    80005aca:	0000                	unimp
    80005acc:	0000                	unimp
    80005ace:	0000                	unimp
    80005ad0:	0000                	unimp
    80005ad2:	0000                	unimp
    80005ad4:	0000                	unimp
    80005ad6:	0000                	unimp
    80005ad8:	0000                	unimp
    80005ada:	0000                	unimp
    80005adc:	0000                	unimp
    80005ade:	0000                	unimp
    80005ae0:	0000                	unimp
    80005ae2:	0000                	unimp
    80005ae4:	0000                	unimp
    80005ae6:	0000                	unimp
    80005ae8:	0000                	unimp
    80005aea:	0000                	unimp
    80005aec:	0000                	unimp
    80005aee:	0000                	unimp
    80005af0:	0000                	unimp
    80005af2:	0000                	unimp
    80005af4:	0000                	unimp
    80005af6:	0000                	unimp
    80005af8:	0000                	unimp
    80005afa:	0000                	unimp
    80005afc:	0000                	unimp
    80005afe:	0000                	unimp
    80005b00:	0000                	unimp
    80005b02:	0000                	unimp
    80005b04:	0000                	unimp
    80005b06:	0000                	unimp
    80005b08:	0000                	unimp
    80005b0a:	0000                	unimp
    80005b0c:	0000                	unimp
    80005b0e:	0000                	unimp
    80005b10:	0000                	unimp
    80005b12:	0000                	unimp
    80005b14:	0000                	unimp
    80005b16:	0000                	unimp
    80005b18:	0000                	unimp
    80005b1a:	0000                	unimp
    80005b1c:	0000                	unimp
    80005b1e:	0000                	unimp
    80005b20:	0000                	unimp
    80005b22:	0000                	unimp
    80005b24:	0000                	unimp
    80005b26:	0000                	unimp
    80005b28:	0000                	unimp
    80005b2a:	0000                	unimp
    80005b2c:	0000                	unimp
    80005b2e:	0000                	unimp
    80005b30:	0000                	unimp
    80005b32:	0000                	unimp
    80005b34:	0000                	unimp
    80005b36:	0000                	unimp
    80005b38:	0000                	unimp
    80005b3a:	0000                	unimp
    80005b3c:	0000                	unimp
    80005b3e:	0000                	unimp
    80005b40:	0000                	unimp
    80005b42:	0000                	unimp
    80005b44:	0000                	unimp
    80005b46:	0000                	unimp
    80005b48:	0000                	unimp
    80005b4a:	0000                	unimp
    80005b4c:	0000                	unimp
    80005b4e:	0000                	unimp
    80005b50:	0000                	unimp
    80005b52:	0000                	unimp
    80005b54:	0000                	unimp
    80005b56:	0000                	unimp
    80005b58:	0000                	unimp
    80005b5a:	0000                	unimp
    80005b5c:	0000                	unimp
    80005b5e:	0000                	unimp
    80005b60:	0000                	unimp
    80005b62:	0000                	unimp
    80005b64:	0000                	unimp
    80005b66:	0000                	unimp
    80005b68:	0000                	unimp
    80005b6a:	0000                	unimp
    80005b6c:	0000                	unimp
    80005b6e:	0000                	unimp
    80005b70:	0000                	unimp
    80005b72:	0000                	unimp
    80005b74:	0000                	unimp
    80005b76:	0000                	unimp
    80005b78:	0000                	unimp
    80005b7a:	0000                	unimp
    80005b7c:	0000                	unimp
    80005b7e:	0000                	unimp
    80005b80:	0000                	unimp
    80005b82:	0000                	unimp
    80005b84:	0000                	unimp
    80005b86:	0000                	unimp
    80005b88:	0000                	unimp
    80005b8a:	0000                	unimp
    80005b8c:	0000                	unimp
    80005b8e:	0000                	unimp
    80005b90:	0000                	unimp
    80005b92:	0000                	unimp
    80005b94:	0000                	unimp
    80005b96:	0000                	unimp
    80005b98:	0000                	unimp
    80005b9a:	0000                	unimp
    80005b9c:	0000                	unimp
    80005b9e:	0000                	unimp
    80005ba0:	0000                	unimp
    80005ba2:	0000                	unimp
    80005ba4:	0000                	unimp
    80005ba6:	0000                	unimp
    80005ba8:	0000                	unimp
