
rv64ui-p-bltu:     file format elf64-littleriscv


Disassembly of section .text.init:

0000000080000000 <_start>:
    80000000:	04c0006f          	j	8000004c <reset_vector>

0000000080000004 <trap_vector>:
    80000004:	34202f73          	csrr	t5,mcause
    80000008:	00800f93          	li	t6,8
    8000000c:	03ff0a63          	beq	t5,t6,80000040 <write_tohost>
    80000010:	00900f93          	li	t6,9
    80000014:	03ff0663          	beq	t5,t6,80000040 <write_tohost>
    80000018:	00b00f93          	li	t6,11
    8000001c:	03ff0263          	beq	t5,t6,80000040 <write_tohost>
    80000020:	80000f17          	auipc	t5,0x80000
    80000024:	fe0f0f13          	addi	t5,t5,-32 # 0 <_start-0x80000000>
    80000028:	000f0463          	beqz	t5,80000030 <trap_vector+0x2c>
    8000002c:	000f0067          	jr	t5
    80000030:	34202f73          	csrr	t5,mcause
    80000034:	000f5463          	bgez	t5,8000003c <handle_exception>
    80000038:	0040006f          	j	8000003c <handle_exception>

000000008000003c <handle_exception>:
    8000003c:	5391e193          	ori	gp,gp,1337

0000000080000040 <write_tohost>:
    80000040:	00001f17          	auipc	t5,0x1
    80000044:	fc3f2023          	sw	gp,-64(t5) # 80001000 <tohost>
    80000048:	ff9ff06f          	j	80000040 <write_tohost>

000000008000004c <reset_vector>:
    8000004c:	f1402573          	csrr	a0,mhartid
    80000050:	00051063          	bnez	a0,80000050 <reset_vector+0x4>
    80000054:	00000297          	auipc	t0,0x0
    80000058:	01028293          	addi	t0,t0,16 # 80000064 <reset_vector+0x18>
    8000005c:	30529073          	csrw	mtvec,t0
    80000060:	18005073          	csrwi	satp,0
    80000064:	00000297          	auipc	t0,0x0
    80000068:	02428293          	addi	t0,t0,36 # 80000088 <reset_vector+0x3c>
    8000006c:	30529073          	csrw	mtvec,t0
    80000070:	0010029b          	addiw	t0,zero,1
    80000074:	03529293          	slli	t0,t0,0x35
    80000078:	fff28293          	addi	t0,t0,-1
    8000007c:	3b029073          	csrw	pmpaddr0,t0
    80000080:	01f00293          	li	t0,31
    80000084:	3a029073          	csrw	pmpcfg0,t0
    80000088:	00000297          	auipc	t0,0x0
    8000008c:	01828293          	addi	t0,t0,24 # 800000a0 <reset_vector+0x54>
    80000090:	30529073          	csrw	mtvec,t0
    80000094:	30205073          	csrwi	medeleg,0
    80000098:	30305073          	csrwi	mideleg,0
    8000009c:	30405073          	csrwi	mie,0
    800000a0:	00000193          	li	gp,0
    800000a4:	00000297          	auipc	t0,0x0
    800000a8:	f6028293          	addi	t0,t0,-160 # 80000004 <trap_vector>
    800000ac:	30529073          	csrw	mtvec,t0
    800000b0:	00100513          	li	a0,1
    800000b4:	01f51513          	slli	a0,a0,0x1f
    800000b8:	00055c63          	bgez	a0,800000d0 <reset_vector+0x84>
    800000bc:	0ff0000f          	fence
    800000c0:	00100193          	li	gp,1
    800000c4:	05d00893          	li	a7,93
    800000c8:	00000513          	li	a0,0
    800000cc:	00000073          	ecall
    800000d0:	80000297          	auipc	t0,0x80000
    800000d4:	f3028293          	addi	t0,t0,-208 # 0 <_start-0x80000000>
    800000d8:	00028e63          	beqz	t0,800000f4 <reset_vector+0xa8>
    800000dc:	10529073          	csrw	stvec,t0
    800000e0:	0000b2b7          	lui	t0,0xb
    800000e4:	1092829b          	addiw	t0,t0,265
    800000e8:	30229073          	csrw	medeleg,t0
    800000ec:	30202373          	csrr	t1,medeleg
    800000f0:	f46296e3          	bne	t0,t1,8000003c <handle_exception>
    800000f4:	30005073          	csrwi	mstatus,0
    800000f8:	00000297          	auipc	t0,0x0
    800000fc:	01428293          	addi	t0,t0,20 # 8000010c <test_2>
    80000100:	34129073          	csrw	mepc,t0
    80000104:	f1402573          	csrr	a0,mhartid
    80000108:	30200073          	mret

000000008000010c <test_2>:
    8000010c:	00200193          	li	gp,2
    80000110:	00000093          	li	ra,0
    80000114:	00100113          	li	sp,1
    80000118:	0020e663          	bltu	ra,sp,80000124 <test_2+0x18>
    8000011c:	36301c63          	bne	zero,gp,80000494 <fail>
    80000120:	00301663          	bne	zero,gp,8000012c <test_3>
    80000124:	fe20eee3          	bltu	ra,sp,80000120 <test_2+0x14>
    80000128:	36301663          	bne	zero,gp,80000494 <fail>

000000008000012c <test_3>:
    8000012c:	00300193          	li	gp,3
    80000130:	0010009b          	addiw	ra,zero,1
    80000134:	02009093          	slli	ra,ra,0x20
    80000138:	ffe08093          	addi	ra,ra,-2
    8000013c:	0010011b          	addiw	sp,zero,1
    80000140:	02011113          	slli	sp,sp,0x20
    80000144:	fff10113          	addi	sp,sp,-1
    80000148:	0020e663          	bltu	ra,sp,80000154 <test_3+0x28>
    8000014c:	34301463          	bne	zero,gp,80000494 <fail>
    80000150:	00301663          	bne	zero,gp,8000015c <test_4>
    80000154:	fe20eee3          	bltu	ra,sp,80000150 <test_3+0x24>
    80000158:	32301e63          	bne	zero,gp,80000494 <fail>

000000008000015c <test_4>:
    8000015c:	00400193          	li	gp,4
    80000160:	00000093          	li	ra,0
    80000164:	0010011b          	addiw	sp,zero,1
    80000168:	02011113          	slli	sp,sp,0x20
    8000016c:	fff10113          	addi	sp,sp,-1
    80000170:	0020e663          	bltu	ra,sp,8000017c <test_4+0x20>
    80000174:	32301063          	bne	zero,gp,80000494 <fail>
    80000178:	00301663          	bne	zero,gp,80000184 <test_5>
    8000017c:	fe20eee3          	bltu	ra,sp,80000178 <test_4+0x1c>
    80000180:	30301a63          	bne	zero,gp,80000494 <fail>

0000000080000184 <test_5>:
    80000184:	00500193          	li	gp,5
    80000188:	00100093          	li	ra,1
    8000018c:	00000113          	li	sp,0
    80000190:	0020e463          	bltu	ra,sp,80000198 <test_5+0x14>
    80000194:	00301463          	bne	zero,gp,8000019c <test_5+0x18>
    80000198:	2e301e63          	bne	zero,gp,80000494 <fail>
    8000019c:	fe20eee3          	bltu	ra,sp,80000198 <test_5+0x14>

00000000800001a0 <test_6>:
    800001a0:	00600193          	li	gp,6
    800001a4:	0010009b          	addiw	ra,zero,1
    800001a8:	02009093          	slli	ra,ra,0x20
    800001ac:	fff08093          	addi	ra,ra,-1
    800001b0:	0010011b          	addiw	sp,zero,1
    800001b4:	02011113          	slli	sp,sp,0x20
    800001b8:	ffe10113          	addi	sp,sp,-2
    800001bc:	0020e463          	bltu	ra,sp,800001c4 <test_6+0x24>
    800001c0:	00301463          	bne	zero,gp,800001c8 <test_6+0x28>
    800001c4:	2c301863          	bne	zero,gp,80000494 <fail>
    800001c8:	fe20eee3          	bltu	ra,sp,800001c4 <test_6+0x24>

00000000800001cc <test_7>:
    800001cc:	00700193          	li	gp,7
    800001d0:	0010009b          	addiw	ra,zero,1
    800001d4:	02009093          	slli	ra,ra,0x20
    800001d8:	fff08093          	addi	ra,ra,-1
    800001dc:	00000113          	li	sp,0
    800001e0:	0020e463          	bltu	ra,sp,800001e8 <test_7+0x1c>
    800001e4:	00301463          	bne	zero,gp,800001ec <test_7+0x20>
    800001e8:	2a301663          	bne	zero,gp,80000494 <fail>
    800001ec:	fe20eee3          	bltu	ra,sp,800001e8 <test_7+0x1c>

00000000800001f0 <test_8>:
    800001f0:	00800193          	li	gp,8
    800001f4:	0010009b          	addiw	ra,zero,1
    800001f8:	01f09093          	slli	ra,ra,0x1f
    800001fc:	80000137          	lui	sp,0x80000
    80000200:	fff1011b          	addiw	sp,sp,-1
    80000204:	0020e463          	bltu	ra,sp,8000020c <test_8+0x1c>
    80000208:	00301463          	bne	zero,gp,80000210 <test_8+0x20>
    8000020c:	28301463          	bne	zero,gp,80000494 <fail>
    80000210:	fe20eee3          	bltu	ra,sp,8000020c <test_8+0x1c>

0000000080000214 <test_9>:
    80000214:	00900193          	li	gp,9
    80000218:	00000213          	li	tp,0
    8000021c:	00f0009b          	addiw	ra,zero,15
    80000220:	01c09093          	slli	ra,ra,0x1c
    80000224:	00f0011b          	addiw	sp,zero,15
    80000228:	01c11113          	slli	sp,sp,0x1c
    8000022c:	fff10113          	addi	sp,sp,-1 # ffffffff7fffffff <_end+0xfffffffeffffdfff>
    80000230:	2620e263          	bltu	ra,sp,80000494 <fail>
    80000234:	00120213          	addi	tp,tp,1 # 1 <_start-0x7fffffff>
    80000238:	00200293          	li	t0,2
    8000023c:	fe5210e3          	bne	tp,t0,8000021c <test_9+0x8>

0000000080000240 <test_10>:
    80000240:	00a00193          	li	gp,10
    80000244:	00000213          	li	tp,0
    80000248:	00f0009b          	addiw	ra,zero,15
    8000024c:	01c09093          	slli	ra,ra,0x1c
    80000250:	00f0011b          	addiw	sp,zero,15
    80000254:	01c11113          	slli	sp,sp,0x1c
    80000258:	fff10113          	addi	sp,sp,-1
    8000025c:	00000013          	nop
    80000260:	2220ea63          	bltu	ra,sp,80000494 <fail>
    80000264:	00120213          	addi	tp,tp,1 # 1 <_start-0x7fffffff>
    80000268:	00200293          	li	t0,2
    8000026c:	fc521ee3          	bne	tp,t0,80000248 <test_10+0x8>

0000000080000270 <test_11>:
    80000270:	00b00193          	li	gp,11
    80000274:	00000213          	li	tp,0
    80000278:	00f0009b          	addiw	ra,zero,15
    8000027c:	01c09093          	slli	ra,ra,0x1c
    80000280:	00f0011b          	addiw	sp,zero,15
    80000284:	01c11113          	slli	sp,sp,0x1c
    80000288:	fff10113          	addi	sp,sp,-1
    8000028c:	00000013          	nop
    80000290:	00000013          	nop
    80000294:	2020e063          	bltu	ra,sp,80000494 <fail>
    80000298:	00120213          	addi	tp,tp,1 # 1 <_start-0x7fffffff>
    8000029c:	00200293          	li	t0,2
    800002a0:	fc521ce3          	bne	tp,t0,80000278 <test_11+0x8>

00000000800002a4 <test_12>:
    800002a4:	00c00193          	li	gp,12
    800002a8:	00000213          	li	tp,0
    800002ac:	00f0009b          	addiw	ra,zero,15
    800002b0:	01c09093          	slli	ra,ra,0x1c
    800002b4:	00000013          	nop
    800002b8:	00f0011b          	addiw	sp,zero,15
    800002bc:	01c11113          	slli	sp,sp,0x1c
    800002c0:	fff10113          	addi	sp,sp,-1
    800002c4:	1c20e863          	bltu	ra,sp,80000494 <fail>
    800002c8:	00120213          	addi	tp,tp,1 # 1 <_start-0x7fffffff>
    800002cc:	00200293          	li	t0,2
    800002d0:	fc521ee3          	bne	tp,t0,800002ac <test_12+0x8>

00000000800002d4 <test_13>:
    800002d4:	00d00193          	li	gp,13
    800002d8:	00000213          	li	tp,0
    800002dc:	00f0009b          	addiw	ra,zero,15
    800002e0:	01c09093          	slli	ra,ra,0x1c
    800002e4:	00000013          	nop
    800002e8:	00f0011b          	addiw	sp,zero,15
    800002ec:	01c11113          	slli	sp,sp,0x1c
    800002f0:	fff10113          	addi	sp,sp,-1
    800002f4:	00000013          	nop
    800002f8:	1820ee63          	bltu	ra,sp,80000494 <fail>
    800002fc:	00120213          	addi	tp,tp,1 # 1 <_start-0x7fffffff>
    80000300:	00200293          	li	t0,2
    80000304:	fc521ce3          	bne	tp,t0,800002dc <test_13+0x8>

0000000080000308 <test_14>:
    80000308:	00e00193          	li	gp,14
    8000030c:	00000213          	li	tp,0
    80000310:	00f0009b          	addiw	ra,zero,15
    80000314:	01c09093          	slli	ra,ra,0x1c
    80000318:	00000013          	nop
    8000031c:	00000013          	nop
    80000320:	00f0011b          	addiw	sp,zero,15
    80000324:	01c11113          	slli	sp,sp,0x1c
    80000328:	fff10113          	addi	sp,sp,-1
    8000032c:	1620e463          	bltu	ra,sp,80000494 <fail>
    80000330:	00120213          	addi	tp,tp,1 # 1 <_start-0x7fffffff>
    80000334:	00200293          	li	t0,2
    80000338:	fc521ce3          	bne	tp,t0,80000310 <test_14+0x8>

000000008000033c <test_15>:
    8000033c:	00f00193          	li	gp,15
    80000340:	00000213          	li	tp,0
    80000344:	00f0009b          	addiw	ra,zero,15
    80000348:	01c09093          	slli	ra,ra,0x1c
    8000034c:	00f0011b          	addiw	sp,zero,15
    80000350:	01c11113          	slli	sp,sp,0x1c
    80000354:	fff10113          	addi	sp,sp,-1
    80000358:	1220ee63          	bltu	ra,sp,80000494 <fail>
    8000035c:	00120213          	addi	tp,tp,1 # 1 <_start-0x7fffffff>
    80000360:	00200293          	li	t0,2
    80000364:	fe5210e3          	bne	tp,t0,80000344 <test_15+0x8>

0000000080000368 <test_16>:
    80000368:	01000193          	li	gp,16
    8000036c:	00000213          	li	tp,0
    80000370:	00f0009b          	addiw	ra,zero,15
    80000374:	01c09093          	slli	ra,ra,0x1c
    80000378:	00f0011b          	addiw	sp,zero,15
    8000037c:	01c11113          	slli	sp,sp,0x1c
    80000380:	fff10113          	addi	sp,sp,-1
    80000384:	00000013          	nop
    80000388:	1020e663          	bltu	ra,sp,80000494 <fail>
    8000038c:	00120213          	addi	tp,tp,1 # 1 <_start-0x7fffffff>
    80000390:	00200293          	li	t0,2
    80000394:	fc521ee3          	bne	tp,t0,80000370 <test_16+0x8>

0000000080000398 <test_17>:
    80000398:	01100193          	li	gp,17
    8000039c:	00000213          	li	tp,0
    800003a0:	00f0009b          	addiw	ra,zero,15
    800003a4:	01c09093          	slli	ra,ra,0x1c
    800003a8:	00f0011b          	addiw	sp,zero,15
    800003ac:	01c11113          	slli	sp,sp,0x1c
    800003b0:	fff10113          	addi	sp,sp,-1
    800003b4:	00000013          	nop
    800003b8:	00000013          	nop
    800003bc:	0c20ec63          	bltu	ra,sp,80000494 <fail>
    800003c0:	00120213          	addi	tp,tp,1 # 1 <_start-0x7fffffff>
    800003c4:	00200293          	li	t0,2
    800003c8:	fc521ce3          	bne	tp,t0,800003a0 <test_17+0x8>

00000000800003cc <test_18>:
    800003cc:	01200193          	li	gp,18
    800003d0:	00000213          	li	tp,0
    800003d4:	00f0009b          	addiw	ra,zero,15
    800003d8:	01c09093          	slli	ra,ra,0x1c
    800003dc:	00000013          	nop
    800003e0:	00f0011b          	addiw	sp,zero,15
    800003e4:	01c11113          	slli	sp,sp,0x1c
    800003e8:	fff10113          	addi	sp,sp,-1
    800003ec:	0a20e463          	bltu	ra,sp,80000494 <fail>
    800003f0:	00120213          	addi	tp,tp,1 # 1 <_start-0x7fffffff>
    800003f4:	00200293          	li	t0,2
    800003f8:	fc521ee3          	bne	tp,t0,800003d4 <test_18+0x8>

00000000800003fc <test_19>:
    800003fc:	01300193          	li	gp,19
    80000400:	00000213          	li	tp,0
    80000404:	00f0009b          	addiw	ra,zero,15
    80000408:	01c09093          	slli	ra,ra,0x1c
    8000040c:	00000013          	nop
    80000410:	00f0011b          	addiw	sp,zero,15
    80000414:	01c11113          	slli	sp,sp,0x1c
    80000418:	fff10113          	addi	sp,sp,-1
    8000041c:	00000013          	nop
    80000420:	0620ea63          	bltu	ra,sp,80000494 <fail>
    80000424:	00120213          	addi	tp,tp,1 # 1 <_start-0x7fffffff>
    80000428:	00200293          	li	t0,2
    8000042c:	fc521ce3          	bne	tp,t0,80000404 <test_19+0x8>

0000000080000430 <test_20>:
    80000430:	01400193          	li	gp,20
    80000434:	00000213          	li	tp,0
    80000438:	00f0009b          	addiw	ra,zero,15
    8000043c:	01c09093          	slli	ra,ra,0x1c
    80000440:	00000013          	nop
    80000444:	00000013          	nop
    80000448:	00f0011b          	addiw	sp,zero,15
    8000044c:	01c11113          	slli	sp,sp,0x1c
    80000450:	fff10113          	addi	sp,sp,-1
    80000454:	0420e063          	bltu	ra,sp,80000494 <fail>
    80000458:	00120213          	addi	tp,tp,1 # 1 <_start-0x7fffffff>
    8000045c:	00200293          	li	t0,2
    80000460:	fc521ce3          	bne	tp,t0,80000438 <test_20+0x8>

0000000080000464 <test_21>:
    80000464:	00100093          	li	ra,1
    80000468:	00106a63          	bltu	zero,ra,8000047c <test_21+0x18>
    8000046c:	00108093          	addi	ra,ra,1
    80000470:	00108093          	addi	ra,ra,1
    80000474:	00108093          	addi	ra,ra,1
    80000478:	00108093          	addi	ra,ra,1
    8000047c:	00108093          	addi	ra,ra,1
    80000480:	00108093          	addi	ra,ra,1
    80000484:	00300e93          	li	t4,3
    80000488:	01500193          	li	gp,21
    8000048c:	01d09463          	bne	ra,t4,80000494 <fail>
    80000490:	02301063          	bne	zero,gp,800004b0 <pass>

0000000080000494 <fail>:
    80000494:	0ff0000f          	fence
    80000498:	00018063          	beqz	gp,80000498 <fail+0x4>
    8000049c:	00119193          	slli	gp,gp,0x1
    800004a0:	0011e193          	ori	gp,gp,1
    800004a4:	05d00893          	li	a7,93
    800004a8:	00018513          	mv	a0,gp
    800004ac:	00000073          	ecall

00000000800004b0 <pass>:
    800004b0:	0ff0000f          	fence
    800004b4:	00100193          	li	gp,1
    800004b8:	05d00893          	li	a7,93
    800004bc:	00000513          	li	a0,0
    800004c0:	00000073          	ecall
    800004c4:	c0001073          	unimp
    800004c8:	0000                	unimp
    800004ca:	0000                	unimp
    800004cc:	0000                	unimp
    800004ce:	0000                	unimp
    800004d0:	0000                	unimp
    800004d2:	0000                	unimp
    800004d4:	0000                	unimp
    800004d6:	0000                	unimp
    800004d8:	0000                	unimp
    800004da:	0000                	unimp
    800004dc:	0000                	unimp
    800004de:	0000                	unimp
    800004e0:	0000                	unimp
    800004e2:	0000                	unimp
    800004e4:	0000                	unimp
    800004e6:	0000                	unimp
    800004e8:	0000                	unimp
    800004ea:	0000                	unimp
    800004ec:	0000                	unimp
    800004ee:	0000                	unimp
    800004f0:	0000                	unimp
    800004f2:	0000                	unimp
    800004f4:	0000                	unimp
    800004f6:	0000                	unimp
    800004f8:	0000                	unimp
    800004fa:	0000                	unimp
    800004fc:	0000                	unimp
    800004fe:	0000                	unimp
    80000500:	0000                	unimp
    80000502:	0000                	unimp
