
rv64mi-p-ma_addr:     file format elf64-littleriscv


Disassembly of section .text.init:

0000000080000000 <_start>:
    80000000:	04c0006f          	j	8000004c <reset_vector>

0000000080000004 <trap_vector>:
    80000004:	34202f73          	csrr	t5,mcause
    80000008:	00800f93          	li	t6,8
    8000000c:	03ff0a63          	beq	t5,t6,80000040 <write_tohost>
    80000010:	00900f93          	li	t6,9
    80000014:	03ff0663          	beq	t5,t6,80000040 <write_tohost>
    80000018:	00b00f93          	li	t6,11
    8000001c:	03ff0263          	beq	t5,t6,80000040 <write_tohost>
    80000020:	00000f17          	auipc	t5,0x0
    80000024:	608f0f13          	addi	t5,t5,1544 # 80000628 <mtvec_handler>
    80000028:	000f0463          	beqz	t5,80000030 <trap_vector+0x2c>
    8000002c:	000f0067          	jr	t5
    80000030:	34202f73          	csrr	t5,mcause
    80000034:	000f5463          	bgez	t5,8000003c <handle_exception>
    80000038:	0040006f          	j	8000003c <handle_exception>

000000008000003c <handle_exception>:
    8000003c:	5391e193          	ori	gp,gp,1337

0000000080000040 <write_tohost>:
    80000040:	00001f17          	auipc	t5,0x1
    80000044:	fc3f2023          	sw	gp,-64(t5) # 80001000 <tohost>
    80000048:	ff9ff06f          	j	80000040 <write_tohost>

000000008000004c <reset_vector>:
    8000004c:	f1402573          	csrr	a0,mhartid
    80000050:	00051063          	bnez	a0,80000050 <reset_vector+0x4>
    80000054:	00000297          	auipc	t0,0x0
    80000058:	01028293          	addi	t0,t0,16 # 80000064 <reset_vector+0x18>
    8000005c:	30529073          	csrw	mtvec,t0
    80000060:	18005073          	csrwi	satp,0
    80000064:	00000297          	auipc	t0,0x0
    80000068:	02428293          	addi	t0,t0,36 # 80000088 <reset_vector+0x3c>
    8000006c:	30529073          	csrw	mtvec,t0
    80000070:	0010029b          	addiw	t0,zero,1
    80000074:	03529293          	slli	t0,t0,0x35
    80000078:	fff28293          	addi	t0,t0,-1
    8000007c:	3b029073          	csrw	pmpaddr0,t0
    80000080:	01f00293          	li	t0,31
    80000084:	3a029073          	csrw	pmpcfg0,t0
    80000088:	00000297          	auipc	t0,0x0
    8000008c:	01828293          	addi	t0,t0,24 # 800000a0 <reset_vector+0x54>
    80000090:	30529073          	csrw	mtvec,t0
    80000094:	30205073          	csrwi	medeleg,0
    80000098:	30305073          	csrwi	mideleg,0
    8000009c:	30405073          	csrwi	mie,0
    800000a0:	00000193          	li	gp,0
    800000a4:	00000297          	auipc	t0,0x0
    800000a8:	f6028293          	addi	t0,t0,-160 # 80000004 <trap_vector>
    800000ac:	30529073          	csrw	mtvec,t0
    800000b0:	00100513          	li	a0,1
    800000b4:	01f51513          	slli	a0,a0,0x1f
    800000b8:	00055c63          	bgez	a0,800000d0 <reset_vector+0x84>
    800000bc:	0ff0000f          	fence
    800000c0:	00100193          	li	gp,1
    800000c4:	05d00893          	li	a7,93
    800000c8:	00000513          	li	a0,0
    800000cc:	00000073          	ecall
    800000d0:	80000297          	auipc	t0,0x80000
    800000d4:	f3028293          	addi	t0,t0,-208 # 0 <_start-0x80000000>
    800000d8:	00028e63          	beqz	t0,800000f4 <reset_vector+0xa8>
    800000dc:	10529073          	csrw	stvec,t0
    800000e0:	0000b2b7          	lui	t0,0xb
    800000e4:	1092829b          	addiw	t0,t0,265
    800000e8:	30229073          	csrw	medeleg,t0
    800000ec:	30202373          	csrr	t1,medeleg
    800000f0:	f46296e3          	bne	t0,t1,8000003c <handle_exception>
    800000f4:	30005073          	csrwi	mstatus,0
    800000f8:	00002537          	lui	a0,0x2
    800000fc:	8005051b          	addiw	a0,a0,-2048
    80000100:	30052073          	csrs	mstatus,a0
    80000104:	00000297          	auipc	t0,0x0
    80000108:	01428293          	addi	t0,t0,20 # 80000118 <reset_vector+0xcc>
    8000010c:	34129073          	csrw	mepc,t0
    80000110:	f1402573          	csrr	a0,mhartid
    80000114:	30200073          	mret
    80000118:	00002417          	auipc	s0,0x2
    8000011c:	ee840413          	addi	s0,s0,-280 # 80002000 <begin_signature>
    80000120:	00400493          	li	s1,4
    80000124:	00200193          	li	gp,2
    80000128:	00000397          	auipc	t2,0x0
    8000012c:	01c38393          	addi	t2,t2,28 # 80000144 <reset_vector+0xf8>
    80000130:	00140313          	addi	t1,s0,1
    80000134:	00141303          	lh	t1,1(s0)
    80000138:	ffffc3b7          	lui	t2,0xffffc
    8000013c:	bcc3839b          	addiw	t2,t2,-1076
    80000140:	4a731c63          	bne	t1,t2,800005f8 <fail>
    80000144:	00300193          	li	gp,3
    80000148:	00000397          	auipc	t2,0x0
    8000014c:	01c38393          	addi	t2,t2,28 # 80000164 <reset_vector+0x118>
    80000150:	00140313          	addi	t1,s0,1
    80000154:	00145303          	lhu	t1,1(s0)
    80000158:	0000c3b7          	lui	t2,0xc
    8000015c:	bcc3839b          	addiw	t2,t2,-1076
    80000160:	48731c63          	bne	t1,t2,800005f8 <fail>
    80000164:	00400193          	li	gp,4
    80000168:	00000397          	auipc	t2,0x0
    8000016c:	01c38393          	addi	t2,t2,28 # 80000184 <reset_vector+0x138>
    80000170:	00140313          	addi	t1,s0,1
    80000174:	00142303          	lw	t1,1(s0)
    80000178:	99aac3b7          	lui	t2,0x99aac
    8000017c:	bcc3839b          	addiw	t2,t2,-1076
    80000180:	46731c63          	bne	t1,t2,800005f8 <fail>
    80000184:	00500193          	li	gp,5
    80000188:	00000397          	auipc	t2,0x0
    8000018c:	01c38393          	addi	t2,t2,28 # 800001a4 <reset_vector+0x158>
    80000190:	00240313          	addi	t1,s0,2
    80000194:	00242303          	lw	t1,2(s0)
    80000198:	8899b3b7          	lui	t2,0x8899b
    8000019c:	abb3839b          	addiw	t2,t2,-1349
    800001a0:	44731c63          	bne	t1,t2,800005f8 <fail>
    800001a4:	00600193          	li	gp,6
    800001a8:	00000397          	auipc	t2,0x0
    800001ac:	01c38393          	addi	t2,t2,28 # 800001c4 <reset_vector+0x178>
    800001b0:	00340313          	addi	t1,s0,3
    800001b4:	00342303          	lw	t1,3(s0)
    800001b8:	7788a3b7          	lui	t2,0x7788a
    800001bc:	9aa3839b          	addiw	t2,t2,-1622
    800001c0:	42731c63          	bne	t1,t2,800005f8 <fail>
    800001c4:	00700193          	li	gp,7
    800001c8:	00000397          	auipc	t2,0x0
    800001cc:	02438393          	addi	t2,t2,36 # 800001ec <reset_vector+0x1a0>
    800001d0:	00140313          	addi	t1,s0,1
    800001d4:	00146303          	lwu	t1,1(s0)
    800001d8:	000263b7          	lui	t2,0x26
    800001dc:	6ab3839b          	addiw	t2,t2,1707
    800001e0:	00e39393          	slli	t2,t2,0xe
    800001e4:	bcc38393          	addi	t2,t2,-1076 # 25bcc <_start-0x7ffda434>
    800001e8:	40731863          	bne	t1,t2,800005f8 <fail>
    800001ec:	00800193          	li	gp,8
    800001f0:	00000397          	auipc	t2,0x0
    800001f4:	02438393          	addi	t2,t2,36 # 80000214 <reset_vector+0x1c8>
    800001f8:	00240313          	addi	t1,s0,2
    800001fc:	00246303          	lwu	t1,2(s0)
    80000200:	000893b7          	lui	t2,0x89
    80000204:	99b3839b          	addiw	t2,t2,-1637
    80000208:	00c39393          	slli	t2,t2,0xc
    8000020c:	abb38393          	addi	t2,t2,-1349 # 88abb <_start-0x7ff77545>
    80000210:	3e731463          	bne	t1,t2,800005f8 <fail>
    80000214:	00900193          	li	gp,9
    80000218:	00000397          	auipc	t2,0x0
    8000021c:	01c38393          	addi	t2,t2,28 # 80000234 <reset_vector+0x1e8>
    80000220:	00340313          	addi	t1,s0,3
    80000224:	00346303          	lwu	t1,3(s0)
    80000228:	7788a3b7          	lui	t2,0x7788a
    8000022c:	9aa3839b          	addiw	t2,t2,-1622
    80000230:	3c731463          	bne	t1,t2,800005f8 <fail>
    80000234:	00a00193          	li	gp,10
    80000238:	00000397          	auipc	t2,0x0
    8000023c:	03438393          	addi	t2,t2,52 # 8000026c <reset_vector+0x220>
    80000240:	00140313          	addi	t1,s0,1
    80000244:	00143303          	ld	t1,1(s0)
    80000248:	00aad3b7          	lui	t2,0xaad
    8000024c:	cef3839b          	addiw	t2,t2,-785
    80000250:	00c39393          	slli	t2,t2,0xc
    80000254:	11338393          	addi	t2,t2,275 # aad113 <_start-0x7f552eed>
    80000258:	00d39393          	slli	t2,t2,0xd
    8000025c:	6ab38393          	addi	t2,t2,1707
    80000260:	00e39393          	slli	t2,t2,0xe
    80000264:	bcc38393          	addi	t2,t2,-1076
    80000268:	38731863          	bne	t1,t2,800005f8 <fail>
    8000026c:	00b00193          	li	gp,11
    80000270:	00000397          	auipc	t2,0x0
    80000274:	03438393          	addi	t2,t2,52 # 800002a4 <reset_vector+0x258>
    80000278:	00240313          	addi	t1,s0,2
    8000027c:	00243303          	ld	t1,2(s0)
    80000280:	044553b7          	lui	t2,0x4455
    80000284:	6673839b          	addiw	t2,t2,1639
    80000288:	00c39393          	slli	t2,t2,0xc
    8000028c:	78938393          	addi	t2,t2,1929 # 4455789 <_start-0x7bbaa877>
    80000290:	00c39393          	slli	t2,t2,0xc
    80000294:	99b38393          	addi	t2,t2,-1637
    80000298:	00c39393          	slli	t2,t2,0xc
    8000029c:	abb38393          	addi	t2,t2,-1349
    800002a0:	34731c63          	bne	t1,t2,800005f8 <fail>
    800002a4:	00c00193          	li	gp,12
    800002a8:	00000397          	auipc	t2,0x0
    800002ac:	03438393          	addi	t2,t2,52 # 800002dc <reset_vector+0x290>
    800002b0:	00340313          	addi	t1,s0,3
    800002b4:	00343303          	ld	t1,3(s0)
    800002b8:	006693b7          	lui	t2,0x669
    800002bc:	8ab3839b          	addiw	t2,t2,-1877
    800002c0:	00c39393          	slli	t2,t2,0xc
    800002c4:	ccf38393          	addi	t2,t2,-817 # 668ccf <_start-0x7f997331>
    800002c8:	00e39393          	slli	t2,t2,0xe
    800002cc:	c4538393          	addi	t2,t2,-955
    800002d0:	00d39393          	slli	t2,t2,0xd
    800002d4:	9aa38393          	addi	t2,t2,-1622
    800002d8:	32731063          	bne	t1,t2,800005f8 <fail>
    800002dc:	00d00193          	li	gp,13
    800002e0:	00000397          	auipc	t2,0x0
    800002e4:	03438393          	addi	t2,t2,52 # 80000314 <reset_vector+0x2c8>
    800002e8:	00440313          	addi	t1,s0,4
    800002ec:	00443303          	ld	t1,4(s0)
    800002f0:	0111a3b7          	lui	t2,0x111a
    800002f4:	a233839b          	addiw	t2,t2,-1501
    800002f8:	00c39393          	slli	t2,t2,0xc
    800002fc:	ab338393          	addi	t2,t2,-1357 # 1119ab3 <_start-0x7eee654d>
    80000300:	00d39393          	slli	t2,t2,0xd
    80000304:	77938393          	addi	t2,t2,1913
    80000308:	00c39393          	slli	t2,t2,0xc
    8000030c:	89938393          	addi	t2,t2,-1895
    80000310:	2e731463          	bne	t1,t2,800005f8 <fail>
    80000314:	00e00193          	li	gp,14
    80000318:	00000397          	auipc	t2,0x0
    8000031c:	03438393          	addi	t2,t2,52 # 8000034c <reset_vector+0x300>
    80000320:	00540313          	addi	t1,s0,5
    80000324:	00543303          	ld	t1,5(s0)
    80000328:	004493b7          	lui	t2,0x449
    8000032c:	8cd3839b          	addiw	t2,t2,-1843
    80000330:	00e39393          	slli	t2,t2,0xe
    80000334:	45538393          	addi	t2,t2,1109 # 449455 <_start-0x7fbb6bab>
    80000338:	00c39393          	slli	t2,t2,0xc
    8000033c:	66738393          	addi	t2,t2,1639
    80000340:	00c39393          	slli	t2,t2,0xc
    80000344:	78838393          	addi	t2,t2,1928
    80000348:	2a731863          	bne	t1,t2,800005f8 <fail>
    8000034c:	00f00193          	li	gp,15
    80000350:	00000397          	auipc	t2,0x0
    80000354:	03438393          	addi	t2,t2,52 # 80000384 <reset_vector+0x338>
    80000358:	00640313          	addi	t1,s0,6
    8000035c:	00643303          	ld	t1,6(s0)
    80000360:	ffb843b7          	lui	t2,0xffb84
    80000364:	4893839b          	addiw	t2,t2,1161
    80000368:	00c39393          	slli	t2,t2,0xc
    8000036c:	cd138393          	addi	t2,t2,-815 # ffffffffffb83cd1 <_end+0xffffffff7fb81bc1>
    80000370:	00d39393          	slli	t2,t2,0xd
    80000374:	2ab38393          	addi	t2,t2,683
    80000378:	00d39393          	slli	t2,t2,0xd
    8000037c:	67738393          	addi	t2,t2,1655
    80000380:	26731c63          	bne	t1,t2,800005f8 <fail>
    80000384:	01000193          	li	gp,16
    80000388:	00000397          	auipc	t2,0x0
    8000038c:	02c38393          	addi	t2,t2,44 # 800003b4 <reset_vector+0x368>
    80000390:	00740313          	addi	t1,s0,7
    80000394:	00743303          	ld	t1,7(s0)
    80000398:	ee1123b7          	lui	t2,0xee112
    8000039c:	2333839b          	addiw	t2,t2,563
    800003a0:	00c39393          	slli	t2,t2,0xc
    800003a4:	44538393          	addi	t2,t2,1093 # ffffffffee112445 <_end+0xffffffff6e110335>
    800003a8:	00c39393          	slli	t2,t2,0xc
    800003ac:	56638393          	addi	t2,t2,1382
    800003b0:	24731463          	bne	t1,t2,800005f8 <fail>
    800003b4:	00600493          	li	s1,6
    800003b8:	01600193          	li	gp,22
    800003bc:	00000397          	auipc	t2,0x0
    800003c0:	03038393          	addi	t2,t2,48 # 800003ec <reset_vector+0x3a0>
    800003c4:	00140313          	addi	t1,s0,1
    800003c8:	000410a3          	sh	zero,1(s0)
    800003cc:	00040303          	lb	t1,0(s0)
    800003d0:	22030463          	beqz	t1,800005f8 <fail>
    800003d4:	00340303          	lb	t1,3(s0)
    800003d8:	22030063          	beqz	t1,800005f8 <fail>
    800003dc:	00140303          	lb	t1,1(s0)
    800003e0:	20031c63          	bnez	t1,800005f8 <fail>
    800003e4:	00240303          	lb	t1,2(s0)
    800003e8:	20031863          	bnez	t1,800005f8 <fail>
    800003ec:	01700193          	li	gp,23
    800003f0:	00000397          	auipc	t2,0x0
    800003f4:	03038393          	addi	t2,t2,48 # 80000420 <reset_vector+0x3d4>
    800003f8:	00540313          	addi	t1,s0,5
    800003fc:	000422a3          	sw	zero,5(s0)
    80000400:	00440303          	lb	t1,4(s0)
    80000404:	1e030a63          	beqz	t1,800005f8 <fail>
    80000408:	00940303          	lb	t1,9(s0)
    8000040c:	1e030663          	beqz	t1,800005f8 <fail>
    80000410:	00540303          	lb	t1,5(s0)
    80000414:	1e031263          	bnez	t1,800005f8 <fail>
    80000418:	00840303          	lb	t1,8(s0)
    8000041c:	1c031e63          	bnez	t1,800005f8 <fail>
    80000420:	01800193          	li	gp,24
    80000424:	00000397          	auipc	t2,0x0
    80000428:	03038393          	addi	t2,t2,48 # 80000454 <reset_vector+0x408>
    8000042c:	00a40313          	addi	t1,s0,10
    80000430:	00042523          	sw	zero,10(s0)
    80000434:	00940303          	lb	t1,9(s0)
    80000438:	1c030063          	beqz	t1,800005f8 <fail>
    8000043c:	00e40303          	lb	t1,14(s0)
    80000440:	1a030c63          	beqz	t1,800005f8 <fail>
    80000444:	00a40303          	lb	t1,10(s0)
    80000448:	1a031863          	bnez	t1,800005f8 <fail>
    8000044c:	00d40303          	lb	t1,13(s0)
    80000450:	1a031463          	bnez	t1,800005f8 <fail>
    80000454:	01900193          	li	gp,25
    80000458:	00000397          	auipc	t2,0x0
    8000045c:	03038393          	addi	t2,t2,48 # 80000488 <reset_vector+0x43c>
    80000460:	00f40313          	addi	t1,s0,15
    80000464:	000427a3          	sw	zero,15(s0)
    80000468:	00e40303          	lb	t1,14(s0)
    8000046c:	18030663          	beqz	t1,800005f8 <fail>
    80000470:	01340303          	lb	t1,19(s0)
    80000474:	18030263          	beqz	t1,800005f8 <fail>
    80000478:	00f40303          	lb	t1,15(s0)
    8000047c:	16031e63          	bnez	t1,800005f8 <fail>
    80000480:	01240303          	lb	t1,18(s0)
    80000484:	16031a63          	bnez	t1,800005f8 <fail>
    80000488:	01a00193          	li	gp,26
    8000048c:	00000397          	auipc	t2,0x0
    80000490:	03038393          	addi	t2,t2,48 # 800004bc <reset_vector+0x470>
    80000494:	01940313          	addi	t1,s0,25
    80000498:	00043ca3          	sd	zero,25(s0)
    8000049c:	01840303          	lb	t1,24(s0)
    800004a0:	14030c63          	beqz	t1,800005f8 <fail>
    800004a4:	02140303          	lb	t1,33(s0)
    800004a8:	14030863          	beqz	t1,800005f8 <fail>
    800004ac:	01940303          	lb	t1,25(s0)
    800004b0:	14031463          	bnez	t1,800005f8 <fail>
    800004b4:	02040303          	lb	t1,32(s0)
    800004b8:	14031063          	bnez	t1,800005f8 <fail>
    800004bc:	01b00193          	li	gp,27
    800004c0:	00000397          	auipc	t2,0x0
    800004c4:	03038393          	addi	t2,t2,48 # 800004f0 <reset_vector+0x4a4>
    800004c8:	02240313          	addi	t1,s0,34
    800004cc:	02043123          	sd	zero,34(s0)
    800004d0:	02140303          	lb	t1,33(s0)
    800004d4:	12030263          	beqz	t1,800005f8 <fail>
    800004d8:	02a40303          	lb	t1,42(s0)
    800004dc:	10030e63          	beqz	t1,800005f8 <fail>
    800004e0:	02240303          	lb	t1,34(s0)
    800004e4:	10031a63          	bnez	t1,800005f8 <fail>
    800004e8:	02940303          	lb	t1,41(s0)
    800004ec:	10031663          	bnez	t1,800005f8 <fail>
    800004f0:	01c00193          	li	gp,28
    800004f4:	00000397          	auipc	t2,0x0
    800004f8:	03038393          	addi	t2,t2,48 # 80000524 <reset_vector+0x4d8>
    800004fc:	02b40313          	addi	t1,s0,43
    80000500:	020435a3          	sd	zero,43(s0)
    80000504:	02a40303          	lb	t1,42(s0)
    80000508:	0e030863          	beqz	t1,800005f8 <fail>
    8000050c:	03340303          	lb	t1,51(s0)
    80000510:	0e030463          	beqz	t1,800005f8 <fail>
    80000514:	02b40303          	lb	t1,43(s0)
    80000518:	0e031063          	bnez	t1,800005f8 <fail>
    8000051c:	03240303          	lb	t1,50(s0)
    80000520:	0c031c63          	bnez	t1,800005f8 <fail>
    80000524:	01d00193          	li	gp,29
    80000528:	00000397          	auipc	t2,0x0
    8000052c:	03038393          	addi	t2,t2,48 # 80000558 <reset_vector+0x50c>
    80000530:	03440313          	addi	t1,s0,52
    80000534:	02043a23          	sd	zero,52(s0)
    80000538:	03340303          	lb	t1,51(s0)
    8000053c:	0a030e63          	beqz	t1,800005f8 <fail>
    80000540:	03c40303          	lb	t1,60(s0)
    80000544:	0a030a63          	beqz	t1,800005f8 <fail>
    80000548:	03440303          	lb	t1,52(s0)
    8000054c:	0a031663          	bnez	t1,800005f8 <fail>
    80000550:	03b40303          	lb	t1,59(s0)
    80000554:	0a031263          	bnez	t1,800005f8 <fail>
    80000558:	01e00193          	li	gp,30
    8000055c:	00000397          	auipc	t2,0x0
    80000560:	03038393          	addi	t2,t2,48 # 8000058c <reset_vector+0x540>
    80000564:	03d40313          	addi	t1,s0,61
    80000568:	02043ea3          	sd	zero,61(s0)
    8000056c:	03c40303          	lb	t1,60(s0)
    80000570:	08030463          	beqz	t1,800005f8 <fail>
    80000574:	04540303          	lb	t1,69(s0)
    80000578:	08030063          	beqz	t1,800005f8 <fail>
    8000057c:	03d40303          	lb	t1,61(s0)
    80000580:	06031c63          	bnez	t1,800005f8 <fail>
    80000584:	04440303          	lb	t1,68(s0)
    80000588:	06031863          	bnez	t1,800005f8 <fail>
    8000058c:	01f00193          	li	gp,31
    80000590:	00000397          	auipc	t2,0x0
    80000594:	03038393          	addi	t2,t2,48 # 800005c0 <reset_vector+0x574>
    80000598:	04640313          	addi	t1,s0,70
    8000059c:	04043323          	sd	zero,70(s0)
    800005a0:	04540303          	lb	t1,69(s0)
    800005a4:	04030a63          	beqz	t1,800005f8 <fail>
    800005a8:	04e40303          	lb	t1,78(s0)
    800005ac:	04030663          	beqz	t1,800005f8 <fail>
    800005b0:	04640303          	lb	t1,70(s0)
    800005b4:	04031263          	bnez	t1,800005f8 <fail>
    800005b8:	04d40303          	lb	t1,77(s0)
    800005bc:	02031e63          	bnez	t1,800005f8 <fail>
    800005c0:	02000193          	li	gp,32
    800005c4:	00000397          	auipc	t2,0x0
    800005c8:	03038393          	addi	t2,t2,48 # 800005f4 <reset_vector+0x5a8>
    800005cc:	04f40313          	addi	t1,s0,79
    800005d0:	040437a3          	sd	zero,79(s0)
    800005d4:	04e40303          	lb	t1,78(s0)
    800005d8:	02030063          	beqz	t1,800005f8 <fail>
    800005dc:	05740303          	lb	t1,87(s0)
    800005e0:	00030c63          	beqz	t1,800005f8 <fail>
    800005e4:	04f40303          	lb	t1,79(s0)
    800005e8:	00031863          	bnez	t1,800005f8 <fail>
    800005ec:	05640303          	lb	t1,86(s0)
    800005f0:	00031463          	bnez	t1,800005f8 <fail>
    800005f4:	02301063          	bne	zero,gp,80000614 <pass>

00000000800005f8 <fail>:
    800005f8:	0ff0000f          	fence
    800005fc:	00018063          	beqz	gp,800005fc <fail+0x4>
    80000600:	00119193          	slli	gp,gp,0x1
    80000604:	0011e193          	ori	gp,gp,1
    80000608:	05d00893          	li	a7,93
    8000060c:	00018513          	mv	a0,gp
    80000610:	00000073          	ecall

0000000080000614 <pass>:
    80000614:	0ff0000f          	fence
    80000618:	00100193          	li	gp,1
    8000061c:	05d00893          	li	a7,93
    80000620:	00000513          	li	a0,0
    80000624:	00000073          	ecall

0000000080000628 <mtvec_handler>:
    80000628:	342022f3          	csrr	t0,mcause
    8000062c:	fc9296e3          	bne	t0,s1,800005f8 <fail>
    80000630:	343022f3          	csrr	t0,mtval
    80000634:	fc6292e3          	bne	t0,t1,800005f8 <fail>
    80000638:	00028283          	lb	t0,0(t0)
    8000063c:	fa028ee3          	beqz	t0,800005f8 <fail>
    80000640:	34139073          	csrw	mepc,t2
    80000644:	30200073          	mret
    80000648:	c0001073          	unimp
    8000064c:	0000                	unimp
    8000064e:	0000                	unimp
    80000650:	0000                	unimp
    80000652:	0000                	unimp
    80000654:	0000                	unimp
    80000656:	0000                	unimp
    80000658:	0000                	unimp
    8000065a:	0000                	unimp
    8000065c:	0000                	unimp
    8000065e:	0000                	unimp
    80000660:	0000                	unimp
    80000662:	0000                	unimp
    80000664:	0000                	unimp
    80000666:	0000                	unimp
    80000668:	0000                	unimp
    8000066a:	0000                	unimp
    8000066c:	0000                	unimp
    8000066e:	0000                	unimp
    80000670:	0000                	unimp
    80000672:	0000                	unimp
    80000674:	0000                	unimp
    80000676:	0000                	unimp
    80000678:	0000                	unimp
    8000067a:	0000                	unimp
    8000067c:	0000                	unimp
    8000067e:	0000                	unimp

Disassembly of section .data:

0000000080002000 <begin_signature>:
    80002000:	ccdd                	beqz	s1,800020be <begin_signature+0xbe>
    80002002:	8899aabb          	0x8899aabb
    80002006:	44556677          	0x44556677
    8000200a:	ee112233          	0xee112233
    8000200e:	eeff                	0xeeff
    80002010:	5050                	lw	a2,36(s0)
    80002012:	5050                	lw	a2,36(s0)
    80002014:	5050                	lw	a2,36(s0)
    80002016:	5050                	lw	a2,36(s0)
    80002018:	5050                	lw	a2,36(s0)
    8000201a:	5050                	lw	a2,36(s0)
    8000201c:	5050                	lw	a2,36(s0)
    8000201e:	5050                	lw	a2,36(s0)
    80002020:	5050                	lw	a2,36(s0)
    80002022:	5050                	lw	a2,36(s0)
    80002024:	5050                	lw	a2,36(s0)
    80002026:	5050                	lw	a2,36(s0)
    80002028:	5050                	lw	a2,36(s0)
    8000202a:	5050                	lw	a2,36(s0)
    8000202c:	5050                	lw	a2,36(s0)
    8000202e:	5050                	lw	a2,36(s0)
    80002030:	5050                	lw	a2,36(s0)
    80002032:	5050                	lw	a2,36(s0)
    80002034:	5050                	lw	a2,36(s0)
    80002036:	5050                	lw	a2,36(s0)
    80002038:	5050                	lw	a2,36(s0)
    8000203a:	5050                	lw	a2,36(s0)
    8000203c:	5050                	lw	a2,36(s0)
    8000203e:	5050                	lw	a2,36(s0)
    80002040:	5050                	lw	a2,36(s0)
    80002042:	5050                	lw	a2,36(s0)
    80002044:	5050                	lw	a2,36(s0)
    80002046:	5050                	lw	a2,36(s0)
    80002048:	5050                	lw	a2,36(s0)
    8000204a:	5050                	lw	a2,36(s0)
    8000204c:	5050                	lw	a2,36(s0)
    8000204e:	5050                	lw	a2,36(s0)
    80002050:	5050                	lw	a2,36(s0)
    80002052:	5050                	lw	a2,36(s0)
    80002054:	5050                	lw	a2,36(s0)
    80002056:	5050                	lw	a2,36(s0)
    80002058:	5050                	lw	a2,36(s0)
    8000205a:	5050                	lw	a2,36(s0)
    8000205c:	5050                	lw	a2,36(s0)
    8000205e:	5050                	lw	a2,36(s0)
    80002060:	5050                	lw	a2,36(s0)
    80002062:	5050                	lw	a2,36(s0)
    80002064:	5050                	lw	a2,36(s0)
    80002066:	5050                	lw	a2,36(s0)
    80002068:	5050                	lw	a2,36(s0)
    8000206a:	5050                	lw	a2,36(s0)
    8000206c:	5050                	lw	a2,36(s0)
    8000206e:	5050                	lw	a2,36(s0)
    80002070:	5050                	lw	a2,36(s0)
    80002072:	5050                	lw	a2,36(s0)
    80002074:	5050                	lw	a2,36(s0)
    80002076:	5050                	lw	a2,36(s0)
    80002078:	5050                	lw	a2,36(s0)
    8000207a:	5050                	lw	a2,36(s0)
    8000207c:	5050                	lw	a2,36(s0)
    8000207e:	5050                	lw	a2,36(s0)
    80002080:	5050                	lw	a2,36(s0)
    80002082:	5050                	lw	a2,36(s0)
    80002084:	5050                	lw	a2,36(s0)
    80002086:	5050                	lw	a2,36(s0)
    80002088:	5050                	lw	a2,36(s0)
    8000208a:	5050                	lw	a2,36(s0)
    8000208c:	5050                	lw	a2,36(s0)
    8000208e:	5050                	lw	a2,36(s0)
    80002090:	5050                	lw	a2,36(s0)
    80002092:	5050                	lw	a2,36(s0)
    80002094:	5050                	lw	a2,36(s0)
    80002096:	5050                	lw	a2,36(s0)
    80002098:	5050                	lw	a2,36(s0)
    8000209a:	5050                	lw	a2,36(s0)
    8000209c:	5050                	lw	a2,36(s0)
    8000209e:	5050                	lw	a2,36(s0)
    800020a0:	5050                	lw	a2,36(s0)
    800020a2:	5050                	lw	a2,36(s0)
    800020a4:	5050                	lw	a2,36(s0)
    800020a6:	5050                	lw	a2,36(s0)
    800020a8:	5050                	lw	a2,36(s0)
    800020aa:	5050                	lw	a2,36(s0)
    800020ac:	5050                	lw	a2,36(s0)
    800020ae:	5050                	lw	a2,36(s0)
    800020b0:	5050                	lw	a2,36(s0)
    800020b2:	5050                	lw	a2,36(s0)
    800020b4:	5050                	lw	a2,36(s0)
    800020b6:	5050                	lw	a2,36(s0)
    800020b8:	5050                	lw	a2,36(s0)
    800020ba:	5050                	lw	a2,36(s0)
    800020bc:	5050                	lw	a2,36(s0)
    800020be:	5050                	lw	a2,36(s0)
    800020c0:	5050                	lw	a2,36(s0)
    800020c2:	5050                	lw	a2,36(s0)
    800020c4:	5050                	lw	a2,36(s0)
    800020c6:	5050                	lw	a2,36(s0)
    800020c8:	5050                	lw	a2,36(s0)
    800020ca:	5050                	lw	a2,36(s0)
    800020cc:	5050                	lw	a2,36(s0)
    800020ce:	5050                	lw	a2,36(s0)
    800020d0:	5050                	lw	a2,36(s0)
    800020d2:	5050                	lw	a2,36(s0)
    800020d4:	5050                	lw	a2,36(s0)
    800020d6:	5050                	lw	a2,36(s0)
    800020d8:	5050                	lw	a2,36(s0)
    800020da:	5050                	lw	a2,36(s0)
    800020dc:	5050                	lw	a2,36(s0)
    800020de:	5050                	lw	a2,36(s0)
    800020e0:	5050                	lw	a2,36(s0)
    800020e2:	5050                	lw	a2,36(s0)
    800020e4:	5050                	lw	a2,36(s0)
    800020e6:	5050                	lw	a2,36(s0)
    800020e8:	5050                	lw	a2,36(s0)
    800020ea:	5050                	lw	a2,36(s0)
    800020ec:	5050                	lw	a2,36(s0)
    800020ee:	5050                	lw	a2,36(s0)
    800020f0:	5050                	lw	a2,36(s0)
    800020f2:	5050                	lw	a2,36(s0)
    800020f4:	5050                	lw	a2,36(s0)
    800020f6:	5050                	lw	a2,36(s0)
    800020f8:	5050                	lw	a2,36(s0)
    800020fa:	5050                	lw	a2,36(s0)
    800020fc:	5050                	lw	a2,36(s0)
    800020fe:	5050                	lw	a2,36(s0)
    80002100:	5050                	lw	a2,36(s0)
    80002102:	5050                	lw	a2,36(s0)
    80002104:	5050                	lw	a2,36(s0)
    80002106:	5050                	lw	a2,36(s0)
    80002108:	5050                	lw	a2,36(s0)
    8000210a:	5050                	lw	a2,36(s0)
    8000210c:	5050                	lw	a2,36(s0)
    8000210e:	0050                	addi	a2,sp,4
