
rv64ui-p-sraiw:     file format elf64-littleriscv


Disassembly of section .text.init:

0000000080000000 <_start>:
    80000000:	04c0006f          	j	8000004c <reset_vector>

0000000080000004 <trap_vector>:
    80000004:	34202f73          	csrr	t5,mcause
    80000008:	00800f93          	li	t6,8
    8000000c:	03ff0a63          	beq	t5,t6,80000040 <write_tohost>
    80000010:	00900f93          	li	t6,9
    80000014:	03ff0663          	beq	t5,t6,80000040 <write_tohost>
    80000018:	00b00f93          	li	t6,11
    8000001c:	03ff0263          	beq	t5,t6,80000040 <write_tohost>
    80000020:	80000f17          	auipc	t5,0x80000
    80000024:	fe0f0f13          	addi	t5,t5,-32 # 0 <_start-0x80000000>
    80000028:	000f0463          	beqz	t5,80000030 <trap_vector+0x2c>
    8000002c:	000f0067          	jr	t5
    80000030:	34202f73          	csrr	t5,mcause
    80000034:	000f5463          	bgez	t5,8000003c <handle_exception>
    80000038:	0040006f          	j	8000003c <handle_exception>

000000008000003c <handle_exception>:
    8000003c:	5391e193          	ori	gp,gp,1337

0000000080000040 <write_tohost>:
    80000040:	00001f17          	auipc	t5,0x1
    80000044:	fc3f2023          	sw	gp,-64(t5) # 80001000 <tohost>
    80000048:	ff9ff06f          	j	80000040 <write_tohost>

000000008000004c <reset_vector>:
    8000004c:	f1402573          	csrr	a0,mhartid
    80000050:	00051063          	bnez	a0,80000050 <reset_vector+0x4>
    80000054:	00000297          	auipc	t0,0x0
    80000058:	01028293          	addi	t0,t0,16 # 80000064 <reset_vector+0x18>
    8000005c:	30529073          	csrw	mtvec,t0
    80000060:	18005073          	csrwi	satp,0
    80000064:	00000297          	auipc	t0,0x0
    80000068:	02428293          	addi	t0,t0,36 # 80000088 <reset_vector+0x3c>
    8000006c:	30529073          	csrw	mtvec,t0
    80000070:	0010029b          	addiw	t0,zero,1
    80000074:	03529293          	slli	t0,t0,0x35
    80000078:	fff28293          	addi	t0,t0,-1
    8000007c:	3b029073          	csrw	pmpaddr0,t0
    80000080:	01f00293          	li	t0,31
    80000084:	3a029073          	csrw	pmpcfg0,t0
    80000088:	00000297          	auipc	t0,0x0
    8000008c:	01828293          	addi	t0,t0,24 # 800000a0 <reset_vector+0x54>
    80000090:	30529073          	csrw	mtvec,t0
    80000094:	30205073          	csrwi	medeleg,0
    80000098:	30305073          	csrwi	mideleg,0
    8000009c:	30405073          	csrwi	mie,0
    800000a0:	00000193          	li	gp,0
    800000a4:	00000297          	auipc	t0,0x0
    800000a8:	f6028293          	addi	t0,t0,-160 # 80000004 <trap_vector>
    800000ac:	30529073          	csrw	mtvec,t0
    800000b0:	00100513          	li	a0,1
    800000b4:	01f51513          	slli	a0,a0,0x1f
    800000b8:	00055c63          	bgez	a0,800000d0 <reset_vector+0x84>
    800000bc:	0ff0000f          	fence
    800000c0:	00100193          	li	gp,1
    800000c4:	05d00893          	li	a7,93
    800000c8:	00000513          	li	a0,0
    800000cc:	00000073          	ecall
    800000d0:	80000297          	auipc	t0,0x80000
    800000d4:	f3028293          	addi	t0,t0,-208 # 0 <_start-0x80000000>
    800000d8:	00028e63          	beqz	t0,800000f4 <reset_vector+0xa8>
    800000dc:	10529073          	csrw	stvec,t0
    800000e0:	0000b2b7          	lui	t0,0xb
    800000e4:	1092829b          	addiw	t0,t0,265
    800000e8:	30229073          	csrw	medeleg,t0
    800000ec:	30202373          	csrr	t1,medeleg
    800000f0:	f46296e3          	bne	t0,t1,8000003c <handle_exception>
    800000f4:	30005073          	csrwi	mstatus,0
    800000f8:	00000297          	auipc	t0,0x0
    800000fc:	01428293          	addi	t0,t0,20 # 8000010c <test_2>
    80000100:	34129073          	csrw	mepc,t0
    80000104:	f1402573          	csrr	a0,mhartid
    80000108:	30200073          	mret

000000008000010c <test_2>:
    8000010c:	800000b7          	lui	ra,0x80000
    80000110:	4000d71b          	sraiw	a4,ra,0x0
    80000114:	80000eb7          	lui	t4,0x80000
    80000118:	00200193          	li	gp,2
    8000011c:	37d71463          	bne	a4,t4,80000484 <fail>

0000000080000120 <test_3>:
    80000120:	800000b7          	lui	ra,0x80000
    80000124:	4010d71b          	sraiw	a4,ra,0x1
    80000128:	c0000eb7          	lui	t4,0xc0000
    8000012c:	00300193          	li	gp,3
    80000130:	35d71a63          	bne	a4,t4,80000484 <fail>

0000000080000134 <test_4>:
    80000134:	800000b7          	lui	ra,0x80000
    80000138:	4070d71b          	sraiw	a4,ra,0x7
    8000013c:	ff000eb7          	lui	t4,0xff000
    80000140:	00400193          	li	gp,4
    80000144:	35d71063          	bne	a4,t4,80000484 <fail>

0000000080000148 <test_5>:
    80000148:	800000b7          	lui	ra,0x80000
    8000014c:	40e0d71b          	sraiw	a4,ra,0xe
    80000150:	fffe0eb7          	lui	t4,0xfffe0
    80000154:	00500193          	li	gp,5
    80000158:	33d71663          	bne	a4,t4,80000484 <fail>

000000008000015c <test_6>:
    8000015c:	800000b7          	lui	ra,0x80000
    80000160:	0010809b          	addiw	ra,ra,1
    80000164:	41f0d71b          	sraiw	a4,ra,0x1f
    80000168:	fff00e93          	li	t4,-1
    8000016c:	00600193          	li	gp,6
    80000170:	31d71a63          	bne	a4,t4,80000484 <fail>

0000000080000174 <test_7>:
    80000174:	800000b7          	lui	ra,0x80000
    80000178:	fff0809b          	addiw	ra,ra,-1
    8000017c:	4000d71b          	sraiw	a4,ra,0x0
    80000180:	80000eb7          	lui	t4,0x80000
    80000184:	fffe8e9b          	addiw	t4,t4,-1
    80000188:	00700193          	li	gp,7
    8000018c:	2fd71c63          	bne	a4,t4,80000484 <fail>

0000000080000190 <test_8>:
    80000190:	800000b7          	lui	ra,0x80000
    80000194:	fff0809b          	addiw	ra,ra,-1
    80000198:	4010d71b          	sraiw	a4,ra,0x1
    8000019c:	40000eb7          	lui	t4,0x40000
    800001a0:	fffe8e9b          	addiw	t4,t4,-1
    800001a4:	00800193          	li	gp,8
    800001a8:	2dd71e63          	bne	a4,t4,80000484 <fail>

00000000800001ac <test_9>:
    800001ac:	800000b7          	lui	ra,0x80000
    800001b0:	fff0809b          	addiw	ra,ra,-1
    800001b4:	4070d71b          	sraiw	a4,ra,0x7
    800001b8:	01000eb7          	lui	t4,0x1000
    800001bc:	fffe8e9b          	addiw	t4,t4,-1
    800001c0:	00900193          	li	gp,9
    800001c4:	2dd71063          	bne	a4,t4,80000484 <fail>

00000000800001c8 <test_10>:
    800001c8:	800000b7          	lui	ra,0x80000
    800001cc:	fff0809b          	addiw	ra,ra,-1
    800001d0:	40e0d71b          	sraiw	a4,ra,0xe
    800001d4:	00020eb7          	lui	t4,0x20
    800001d8:	fffe8e9b          	addiw	t4,t4,-1
    800001dc:	00a00193          	li	gp,10
    800001e0:	2bd71263          	bne	a4,t4,80000484 <fail>

00000000800001e4 <test_11>:
    800001e4:	800000b7          	lui	ra,0x80000
    800001e8:	fff0809b          	addiw	ra,ra,-1
    800001ec:	41f0d71b          	sraiw	a4,ra,0x1f
    800001f0:	00000e93          	li	t4,0
    800001f4:	00b00193          	li	gp,11
    800001f8:	29d71663          	bne	a4,t4,80000484 <fail>

00000000800001fc <test_12>:
    800001fc:	818180b7          	lui	ra,0x81818
    80000200:	1810809b          	addiw	ra,ra,385
    80000204:	4000d71b          	sraiw	a4,ra,0x0
    80000208:	81818eb7          	lui	t4,0x81818
    8000020c:	181e8e9b          	addiw	t4,t4,385
    80000210:	00c00193          	li	gp,12
    80000214:	27d71863          	bne	a4,t4,80000484 <fail>

0000000080000218 <test_13>:
    80000218:	818180b7          	lui	ra,0x81818
    8000021c:	1810809b          	addiw	ra,ra,385
    80000220:	4010d71b          	sraiw	a4,ra,0x1
    80000224:	c0c0ceb7          	lui	t4,0xc0c0c
    80000228:	0c0e8e9b          	addiw	t4,t4,192
    8000022c:	00d00193          	li	gp,13
    80000230:	25d71a63          	bne	a4,t4,80000484 <fail>

0000000080000234 <test_14>:
    80000234:	818180b7          	lui	ra,0x81818
    80000238:	1810809b          	addiw	ra,ra,385
    8000023c:	4070d71b          	sraiw	a4,ra,0x7
    80000240:	ff030eb7          	lui	t4,0xff030
    80000244:	303e8e9b          	addiw	t4,t4,771
    80000248:	00e00193          	li	gp,14
    8000024c:	23d71c63          	bne	a4,t4,80000484 <fail>

0000000080000250 <test_15>:
    80000250:	818180b7          	lui	ra,0x81818
    80000254:	1810809b          	addiw	ra,ra,385
    80000258:	40e0d71b          	sraiw	a4,ra,0xe
    8000025c:	fffe0eb7          	lui	t4,0xfffe0
    80000260:	606e8e9b          	addiw	t4,t4,1542
    80000264:	00f00193          	li	gp,15
    80000268:	21d71e63          	bne	a4,t4,80000484 <fail>

000000008000026c <test_16>:
    8000026c:	818180b7          	lui	ra,0x81818
    80000270:	1810809b          	addiw	ra,ra,385
    80000274:	41f0d71b          	sraiw	a4,ra,0x1f
    80000278:	fff00e93          	li	t4,-1
    8000027c:	01000193          	li	gp,16
    80000280:	21d71263          	bne	a4,t4,80000484 <fail>

0000000080000284 <test_44>:
    80000284:	fff120b7          	lui	ra,0xfff12
    80000288:	3450809b          	addiw	ra,ra,837
    8000028c:	00c09093          	slli	ra,ra,0xc
    80000290:	67808093          	addi	ra,ra,1656 # fffffffffff12678 <_end+0xffffffff7ff10678>
    80000294:	4000d71b          	sraiw	a4,ra,0x0
    80000298:	12345eb7          	lui	t4,0x12345
    8000029c:	678e8e9b          	addiw	t4,t4,1656
    800002a0:	02c00193          	li	gp,44
    800002a4:	1fd71063          	bne	a4,t4,80000484 <fail>

00000000800002a8 <test_45>:
    800002a8:	fff120b7          	lui	ra,0xfff12
    800002ac:	3450809b          	addiw	ra,ra,837
    800002b0:	00c09093          	slli	ra,ra,0xc
    800002b4:	67808093          	addi	ra,ra,1656 # fffffffffff12678 <_end+0xffffffff7ff10678>
    800002b8:	4040d71b          	sraiw	a4,ra,0x4
    800002bc:	01234eb7          	lui	t4,0x1234
    800002c0:	567e8e9b          	addiw	t4,t4,1383
    800002c4:	02d00193          	li	gp,45
    800002c8:	1bd71e63          	bne	a4,t4,80000484 <fail>

00000000800002cc <test_46>:
    800002cc:	000920b7          	lui	ra,0x92
    800002d0:	3450809b          	addiw	ra,ra,837
    800002d4:	00c09093          	slli	ra,ra,0xc
    800002d8:	67808093          	addi	ra,ra,1656 # 92678 <_start-0x7ff6d988>
    800002dc:	4000d71b          	sraiw	a4,ra,0x0
    800002e0:	92345eb7          	lui	t4,0x92345
    800002e4:	678e8e9b          	addiw	t4,t4,1656
    800002e8:	02e00193          	li	gp,46
    800002ec:	19d71c63          	bne	a4,t4,80000484 <fail>

00000000800002f0 <test_47>:
    800002f0:	000920b7          	lui	ra,0x92
    800002f4:	3450809b          	addiw	ra,ra,837
    800002f8:	00c09093          	slli	ra,ra,0xc
    800002fc:	67808093          	addi	ra,ra,1656 # 92678 <_start-0x7ff6d988>
    80000300:	4040d71b          	sraiw	a4,ra,0x4
    80000304:	f9234eb7          	lui	t4,0xf9234
    80000308:	567e8e9b          	addiw	t4,t4,1383
    8000030c:	02f00193          	li	gp,47
    80000310:	17d71a63          	bne	a4,t4,80000484 <fail>

0000000080000314 <test_17>:
    80000314:	800000b7          	lui	ra,0x80000
    80000318:	4070d09b          	sraiw	ra,ra,0x7
    8000031c:	ff000eb7          	lui	t4,0xff000
    80000320:	01100193          	li	gp,17
    80000324:	17d09063          	bne	ra,t4,80000484 <fail>

0000000080000328 <test_18>:
    80000328:	00000213          	li	tp,0
    8000032c:	800000b7          	lui	ra,0x80000
    80000330:	4070d71b          	sraiw	a4,ra,0x7
    80000334:	00070313          	mv	t1,a4
    80000338:	00120213          	addi	tp,tp,1 # 1 <_start-0x7fffffff>
    8000033c:	00200293          	li	t0,2
    80000340:	fe5216e3          	bne	tp,t0,8000032c <test_18+0x4>
    80000344:	ff000eb7          	lui	t4,0xff000
    80000348:	01200193          	li	gp,18
    8000034c:	13d31c63          	bne	t1,t4,80000484 <fail>

0000000080000350 <test_19>:
    80000350:	00000213          	li	tp,0
    80000354:	800000b7          	lui	ra,0x80000
    80000358:	40e0d71b          	sraiw	a4,ra,0xe
    8000035c:	00000013          	nop
    80000360:	00070313          	mv	t1,a4
    80000364:	00120213          	addi	tp,tp,1 # 1 <_start-0x7fffffff>
    80000368:	00200293          	li	t0,2
    8000036c:	fe5214e3          	bne	tp,t0,80000354 <test_19+0x4>
    80000370:	fffe0eb7          	lui	t4,0xfffe0
    80000374:	01300193          	li	gp,19
    80000378:	11d31663          	bne	t1,t4,80000484 <fail>

000000008000037c <test_20>:
    8000037c:	00000213          	li	tp,0
    80000380:	800000b7          	lui	ra,0x80000
    80000384:	0010809b          	addiw	ra,ra,1
    80000388:	41f0d71b          	sraiw	a4,ra,0x1f
    8000038c:	00000013          	nop
    80000390:	00000013          	nop
    80000394:	00070313          	mv	t1,a4
    80000398:	00120213          	addi	tp,tp,1 # 1 <_start-0x7fffffff>
    8000039c:	00200293          	li	t0,2
    800003a0:	fe5210e3          	bne	tp,t0,80000380 <test_20+0x4>
    800003a4:	fff00e93          	li	t4,-1
    800003a8:	01400193          	li	gp,20
    800003ac:	0dd31c63          	bne	t1,t4,80000484 <fail>

00000000800003b0 <test_21>:
    800003b0:	00000213          	li	tp,0
    800003b4:	800000b7          	lui	ra,0x80000
    800003b8:	4070d71b          	sraiw	a4,ra,0x7
    800003bc:	00120213          	addi	tp,tp,1 # 1 <_start-0x7fffffff>
    800003c0:	00200293          	li	t0,2
    800003c4:	fe5218e3          	bne	tp,t0,800003b4 <test_21+0x4>
    800003c8:	ff000eb7          	lui	t4,0xff000
    800003cc:	01500193          	li	gp,21
    800003d0:	0bd71a63          	bne	a4,t4,80000484 <fail>

00000000800003d4 <test_22>:
    800003d4:	00000213          	li	tp,0
    800003d8:	800000b7          	lui	ra,0x80000
    800003dc:	00000013          	nop
    800003e0:	40e0d71b          	sraiw	a4,ra,0xe
    800003e4:	00120213          	addi	tp,tp,1 # 1 <_start-0x7fffffff>
    800003e8:	00200293          	li	t0,2
    800003ec:	fe5216e3          	bne	tp,t0,800003d8 <test_22+0x4>
    800003f0:	fffe0eb7          	lui	t4,0xfffe0
    800003f4:	01600193          	li	gp,22
    800003f8:	09d71663          	bne	a4,t4,80000484 <fail>

00000000800003fc <test_23>:
    800003fc:	00000213          	li	tp,0
    80000400:	800000b7          	lui	ra,0x80000
    80000404:	0010809b          	addiw	ra,ra,1
    80000408:	00000013          	nop
    8000040c:	00000013          	nop
    80000410:	41f0d71b          	sraiw	a4,ra,0x1f
    80000414:	00120213          	addi	tp,tp,1 # 1 <_start-0x7fffffff>
    80000418:	00200293          	li	t0,2
    8000041c:	fe5212e3          	bne	tp,t0,80000400 <test_23+0x4>
    80000420:	fff00e93          	li	t4,-1
    80000424:	01700193          	li	gp,23
    80000428:	05d71e63          	bne	a4,t4,80000484 <fail>

000000008000042c <test_24>:
    8000042c:	41f0509b          	sraiw	ra,zero,0x1f
    80000430:	00000e93          	li	t4,0
    80000434:	01800193          	li	gp,24
    80000438:	05d09663          	bne	ra,t4,80000484 <fail>

000000008000043c <test_25>:
    8000043c:	01f00093          	li	ra,31
    80000440:	41c0d01b          	sraiw	zero,ra,0x1c
    80000444:	00000e93          	li	t4,0
    80000448:	01900193          	li	gp,25
    8000044c:	03d01c63          	bne	zero,t4,80000484 <fail>

0000000080000450 <test_26>:
    80000450:	0070009b          	addiw	ra,zero,7
    80000454:	03509093          	slli	ra,ra,0x35
    80000458:	41c0d71b          	sraiw	a4,ra,0x1c
    8000045c:	00000e93          	li	t4,0
    80000460:	01a00193          	li	gp,26
    80000464:	03d71063          	bne	a4,t4,80000484 <fail>

0000000080000468 <test_27>:
    80000468:	00f0009b          	addiw	ra,zero,15
    8000046c:	01c09093          	slli	ra,ra,0x1c
    80000470:	4040d71b          	sraiw	a4,ra,0x4
    80000474:	ff000eb7          	lui	t4,0xff000
    80000478:	01b00193          	li	gp,27
    8000047c:	01d71463          	bne	a4,t4,80000484 <fail>
    80000480:	02301063          	bne	zero,gp,800004a0 <pass>

0000000080000484 <fail>:
    80000484:	0ff0000f          	fence
    80000488:	00018063          	beqz	gp,80000488 <fail+0x4>
    8000048c:	00119193          	slli	gp,gp,0x1
    80000490:	0011e193          	ori	gp,gp,1
    80000494:	05d00893          	li	a7,93
    80000498:	00018513          	mv	a0,gp
    8000049c:	00000073          	ecall

00000000800004a0 <pass>:
    800004a0:	0ff0000f          	fence
    800004a4:	00100193          	li	gp,1
    800004a8:	05d00893          	li	a7,93
    800004ac:	00000513          	li	a0,0
    800004b0:	00000073          	ecall
    800004b4:	c0001073          	unimp
    800004b8:	0000                	unimp
    800004ba:	0000                	unimp
    800004bc:	0000                	unimp
    800004be:	0000                	unimp
    800004c0:	0000                	unimp
    800004c2:	0000                	unimp
