
rv64ui-p-ld:     file format elf64-littleriscv


Disassembly of section .text.init:

0000000080000000 <_start>:
    80000000:	04c0006f          	j	8000004c <reset_vector>

0000000080000004 <trap_vector>:
    80000004:	34202f73          	csrr	t5,mcause
    80000008:	00800f93          	li	t6,8
    8000000c:	03ff0a63          	beq	t5,t6,80000040 <write_tohost>
    80000010:	00900f93          	li	t6,9
    80000014:	03ff0663          	beq	t5,t6,80000040 <write_tohost>
    80000018:	00b00f93          	li	t6,11
    8000001c:	03ff0263          	beq	t5,t6,80000040 <write_tohost>
    80000020:	80000f17          	auipc	t5,0x80000
    80000024:	fe0f0f13          	addi	t5,t5,-32 # 0 <_start-0x80000000>
    80000028:	000f0463          	beqz	t5,80000030 <trap_vector+0x2c>
    8000002c:	000f0067          	jr	t5
    80000030:	34202f73          	csrr	t5,mcause
    80000034:	000f5463          	bgez	t5,8000003c <handle_exception>
    80000038:	0040006f          	j	8000003c <handle_exception>

000000008000003c <handle_exception>:
    8000003c:	5391e193          	ori	gp,gp,1337

0000000080000040 <write_tohost>:
    80000040:	00001f17          	auipc	t5,0x1
    80000044:	fc3f2023          	sw	gp,-64(t5) # 80001000 <tohost>
    80000048:	ff9ff06f          	j	80000040 <write_tohost>

000000008000004c <reset_vector>:
    8000004c:	f1402573          	csrr	a0,mhartid
    80000050:	00051063          	bnez	a0,80000050 <reset_vector+0x4>
    80000054:	00000297          	auipc	t0,0x0
    80000058:	01028293          	addi	t0,t0,16 # 80000064 <reset_vector+0x18>
    8000005c:	30529073          	csrw	mtvec,t0
    80000060:	18005073          	csrwi	satp,0
    80000064:	00000297          	auipc	t0,0x0
    80000068:	02428293          	addi	t0,t0,36 # 80000088 <reset_vector+0x3c>
    8000006c:	30529073          	csrw	mtvec,t0
    80000070:	0010029b          	addiw	t0,zero,1
    80000074:	03529293          	slli	t0,t0,0x35
    80000078:	fff28293          	addi	t0,t0,-1
    8000007c:	3b029073          	csrw	pmpaddr0,t0
    80000080:	01f00293          	li	t0,31
    80000084:	3a029073          	csrw	pmpcfg0,t0
    80000088:	00000297          	auipc	t0,0x0
    8000008c:	01828293          	addi	t0,t0,24 # 800000a0 <reset_vector+0x54>
    80000090:	30529073          	csrw	mtvec,t0
    80000094:	30205073          	csrwi	medeleg,0
    80000098:	30305073          	csrwi	mideleg,0
    8000009c:	30405073          	csrwi	mie,0
    800000a0:	00000193          	li	gp,0
    800000a4:	00000297          	auipc	t0,0x0
    800000a8:	f6028293          	addi	t0,t0,-160 # 80000004 <trap_vector>
    800000ac:	30529073          	csrw	mtvec,t0
    800000b0:	00100513          	li	a0,1
    800000b4:	01f51513          	slli	a0,a0,0x1f
    800000b8:	00055c63          	bgez	a0,800000d0 <reset_vector+0x84>
    800000bc:	0ff0000f          	fence
    800000c0:	00100193          	li	gp,1
    800000c4:	05d00893          	li	a7,93
    800000c8:	00000513          	li	a0,0
    800000cc:	00000073          	ecall
    800000d0:	80000297          	auipc	t0,0x80000
    800000d4:	f3028293          	addi	t0,t0,-208 # 0 <_start-0x80000000>
    800000d8:	00028e63          	beqz	t0,800000f4 <reset_vector+0xa8>
    800000dc:	10529073          	csrw	stvec,t0
    800000e0:	0000b2b7          	lui	t0,0xb
    800000e4:	1092829b          	addiw	t0,t0,265
    800000e8:	30229073          	csrw	medeleg,t0
    800000ec:	30202373          	csrr	t1,medeleg
    800000f0:	f46296e3          	bne	t0,t1,8000003c <handle_exception>
    800000f4:	30005073          	csrwi	mstatus,0
    800000f8:	00000297          	auipc	t0,0x0
    800000fc:	01428293          	addi	t0,t0,20 # 8000010c <test_2>
    80000100:	34129073          	csrw	mepc,t0
    80000104:	f1402573          	csrr	a0,mhartid
    80000108:	30200073          	mret

000000008000010c <test_2>:
    8000010c:	00002097          	auipc	ra,0x2
    80000110:	ef408093          	addi	ra,ra,-268 # 80002000 <begin_signature>
    80000114:	0000b703          	ld	a4,0(ra)
    80000118:	00ff0eb7          	lui	t4,0xff0
    8000011c:	0ffe8e9b          	addiw	t4,t4,255
    80000120:	010e9e93          	slli	t4,t4,0x10
    80000124:	0ffe8e93          	addi	t4,t4,255 # ff00ff <_start-0x7f00ff01>
    80000128:	010e9e93          	slli	t4,t4,0x10
    8000012c:	0ffe8e93          	addi	t4,t4,255
    80000130:	00200193          	li	gp,2
    80000134:	3bd71263          	bne	a4,t4,800004d8 <fail>

0000000080000138 <test_3>:
    80000138:	00002097          	auipc	ra,0x2
    8000013c:	ec808093          	addi	ra,ra,-312 # 80002000 <begin_signature>
    80000140:	0080b703          	ld	a4,8(ra)
    80000144:	ff010eb7          	lui	t4,0xff010
    80000148:	f01e8e9b          	addiw	t4,t4,-255
    8000014c:	010e9e93          	slli	t4,t4,0x10
    80000150:	f01e8e93          	addi	t4,t4,-255 # ffffffffff00ff01 <_end+0xffffffff7f00dee1>
    80000154:	010e9e93          	slli	t4,t4,0x10
    80000158:	f00e8e93          	addi	t4,t4,-256
    8000015c:	00300193          	li	gp,3
    80000160:	37d71c63          	bne	a4,t4,800004d8 <fail>

0000000080000164 <test_4>:
    80000164:	00002097          	auipc	ra,0x2
    80000168:	e9c08093          	addi	ra,ra,-356 # 80002000 <begin_signature>
    8000016c:	0100b703          	ld	a4,16(ra)
    80000170:	00010eb7          	lui	t4,0x10
    80000174:	f01e8e9b          	addiw	t4,t4,-255
    80000178:	010e9e93          	slli	t4,t4,0x10
    8000017c:	f01e8e93          	addi	t4,t4,-255 # ff01 <_start-0x7fff00ff>
    80000180:	010e9e93          	slli	t4,t4,0x10
    80000184:	f01e8e93          	addi	t4,t4,-255
    80000188:	00ce9e93          	slli	t4,t4,0xc
    8000018c:	ff0e8e93          	addi	t4,t4,-16
    80000190:	00400193          	li	gp,4
    80000194:	35d71263          	bne	a4,t4,800004d8 <fail>

0000000080000198 <test_5>:
    80000198:	00002097          	auipc	ra,0x2
    8000019c:	e6808093          	addi	ra,ra,-408 # 80002000 <begin_signature>
    800001a0:	0180b703          	ld	a4,24(ra)
    800001a4:	ffff0eb7          	lui	t4,0xffff0
    800001a8:	0ffe8e9b          	addiw	t4,t4,255
    800001ac:	010e9e93          	slli	t4,t4,0x10
    800001b0:	0ffe8e93          	addi	t4,t4,255 # ffffffffffff00ff <_end+0xffffffff7ffee0df>
    800001b4:	010e9e93          	slli	t4,t4,0x10
    800001b8:	0ffe8e93          	addi	t4,t4,255
    800001bc:	00ce9e93          	slli	t4,t4,0xc
    800001c0:	00fe8e93          	addi	t4,t4,15
    800001c4:	00500193          	li	gp,5
    800001c8:	31d71863          	bne	a4,t4,800004d8 <fail>

00000000800001cc <test_6>:
    800001cc:	00002097          	auipc	ra,0x2
    800001d0:	e4c08093          	addi	ra,ra,-436 # 80002018 <tdat4>
    800001d4:	fe80b703          	ld	a4,-24(ra)
    800001d8:	00ff0eb7          	lui	t4,0xff0
    800001dc:	0ffe8e9b          	addiw	t4,t4,255
    800001e0:	010e9e93          	slli	t4,t4,0x10
    800001e4:	0ffe8e93          	addi	t4,t4,255 # ff00ff <_start-0x7f00ff01>
    800001e8:	010e9e93          	slli	t4,t4,0x10
    800001ec:	0ffe8e93          	addi	t4,t4,255
    800001f0:	00600193          	li	gp,6
    800001f4:	2fd71263          	bne	a4,t4,800004d8 <fail>

00000000800001f8 <test_7>:
    800001f8:	00002097          	auipc	ra,0x2
    800001fc:	e2008093          	addi	ra,ra,-480 # 80002018 <tdat4>
    80000200:	ff00b703          	ld	a4,-16(ra)
    80000204:	ff010eb7          	lui	t4,0xff010
    80000208:	f01e8e9b          	addiw	t4,t4,-255
    8000020c:	010e9e93          	slli	t4,t4,0x10
    80000210:	f01e8e93          	addi	t4,t4,-255 # ffffffffff00ff01 <_end+0xffffffff7f00dee1>
    80000214:	010e9e93          	slli	t4,t4,0x10
    80000218:	f00e8e93          	addi	t4,t4,-256
    8000021c:	00700193          	li	gp,7
    80000220:	2bd71c63          	bne	a4,t4,800004d8 <fail>

0000000080000224 <test_8>:
    80000224:	00002097          	auipc	ra,0x2
    80000228:	df408093          	addi	ra,ra,-524 # 80002018 <tdat4>
    8000022c:	ff80b703          	ld	a4,-8(ra)
    80000230:	00010eb7          	lui	t4,0x10
    80000234:	f01e8e9b          	addiw	t4,t4,-255
    80000238:	010e9e93          	slli	t4,t4,0x10
    8000023c:	f01e8e93          	addi	t4,t4,-255 # ff01 <_start-0x7fff00ff>
    80000240:	010e9e93          	slli	t4,t4,0x10
    80000244:	f01e8e93          	addi	t4,t4,-255
    80000248:	00ce9e93          	slli	t4,t4,0xc
    8000024c:	ff0e8e93          	addi	t4,t4,-16
    80000250:	00800193          	li	gp,8
    80000254:	29d71263          	bne	a4,t4,800004d8 <fail>

0000000080000258 <test_9>:
    80000258:	00002097          	auipc	ra,0x2
    8000025c:	dc008093          	addi	ra,ra,-576 # 80002018 <tdat4>
    80000260:	0000b703          	ld	a4,0(ra)
    80000264:	ffff0eb7          	lui	t4,0xffff0
    80000268:	0ffe8e9b          	addiw	t4,t4,255
    8000026c:	010e9e93          	slli	t4,t4,0x10
    80000270:	0ffe8e93          	addi	t4,t4,255 # ffffffffffff00ff <_end+0xffffffff7ffee0df>
    80000274:	010e9e93          	slli	t4,t4,0x10
    80000278:	0ffe8e93          	addi	t4,t4,255
    8000027c:	00ce9e93          	slli	t4,t4,0xc
    80000280:	00fe8e93          	addi	t4,t4,15
    80000284:	00900193          	li	gp,9
    80000288:	25d71863          	bne	a4,t4,800004d8 <fail>

000000008000028c <test_10>:
    8000028c:	00002097          	auipc	ra,0x2
    80000290:	d7408093          	addi	ra,ra,-652 # 80002000 <begin_signature>
    80000294:	fe008093          	addi	ra,ra,-32
    80000298:	0200b283          	ld	t0,32(ra)
    8000029c:	00ff0eb7          	lui	t4,0xff0
    800002a0:	0ffe8e9b          	addiw	t4,t4,255
    800002a4:	010e9e93          	slli	t4,t4,0x10
    800002a8:	0ffe8e93          	addi	t4,t4,255 # ff00ff <_start-0x7f00ff01>
    800002ac:	010e9e93          	slli	t4,t4,0x10
    800002b0:	0ffe8e93          	addi	t4,t4,255
    800002b4:	00a00193          	li	gp,10
    800002b8:	23d29063          	bne	t0,t4,800004d8 <fail>

00000000800002bc <test_11>:
    800002bc:	00002097          	auipc	ra,0x2
    800002c0:	d4408093          	addi	ra,ra,-700 # 80002000 <begin_signature>
    800002c4:	ffd08093          	addi	ra,ra,-3
    800002c8:	00b0b283          	ld	t0,11(ra)
    800002cc:	ff010eb7          	lui	t4,0xff010
    800002d0:	f01e8e9b          	addiw	t4,t4,-255
    800002d4:	010e9e93          	slli	t4,t4,0x10
    800002d8:	f01e8e93          	addi	t4,t4,-255 # ffffffffff00ff01 <_end+0xffffffff7f00dee1>
    800002dc:	010e9e93          	slli	t4,t4,0x10
    800002e0:	f00e8e93          	addi	t4,t4,-256
    800002e4:	00b00193          	li	gp,11
    800002e8:	1fd29863          	bne	t0,t4,800004d8 <fail>

00000000800002ec <test_12>:
    800002ec:	00c00193          	li	gp,12
    800002f0:	00000213          	li	tp,0
    800002f4:	00002097          	auipc	ra,0x2
    800002f8:	d1408093          	addi	ra,ra,-748 # 80002008 <tdat2>
    800002fc:	0080b703          	ld	a4,8(ra)
    80000300:	00070313          	mv	t1,a4
    80000304:	00010eb7          	lui	t4,0x10
    80000308:	f01e8e9b          	addiw	t4,t4,-255
    8000030c:	010e9e93          	slli	t4,t4,0x10
    80000310:	f01e8e93          	addi	t4,t4,-255 # ff01 <_start-0x7fff00ff>
    80000314:	010e9e93          	slli	t4,t4,0x10
    80000318:	f01e8e93          	addi	t4,t4,-255
    8000031c:	00ce9e93          	slli	t4,t4,0xc
    80000320:	ff0e8e93          	addi	t4,t4,-16
    80000324:	1bd31a63          	bne	t1,t4,800004d8 <fail>
    80000328:	00120213          	addi	tp,tp,1 # 1 <_start-0x7fffffff>
    8000032c:	00200293          	li	t0,2
    80000330:	fc5212e3          	bne	tp,t0,800002f4 <test_12+0x8>

0000000080000334 <test_13>:
    80000334:	00d00193          	li	gp,13
    80000338:	00000213          	li	tp,0
    8000033c:	00002097          	auipc	ra,0x2
    80000340:	cd408093          	addi	ra,ra,-812 # 80002010 <tdat3>
    80000344:	0080b703          	ld	a4,8(ra)
    80000348:	00000013          	nop
    8000034c:	00070313          	mv	t1,a4
    80000350:	ffff0eb7          	lui	t4,0xffff0
    80000354:	0ffe8e9b          	addiw	t4,t4,255
    80000358:	010e9e93          	slli	t4,t4,0x10
    8000035c:	0ffe8e93          	addi	t4,t4,255 # ffffffffffff00ff <_end+0xffffffff7ffee0df>
    80000360:	010e9e93          	slli	t4,t4,0x10
    80000364:	0ffe8e93          	addi	t4,t4,255
    80000368:	00ce9e93          	slli	t4,t4,0xc
    8000036c:	00fe8e93          	addi	t4,t4,15
    80000370:	17d31463          	bne	t1,t4,800004d8 <fail>
    80000374:	00120213          	addi	tp,tp,1 # 1 <_start-0x7fffffff>
    80000378:	00200293          	li	t0,2
    8000037c:	fc5210e3          	bne	tp,t0,8000033c <test_13+0x8>

0000000080000380 <test_14>:
    80000380:	00e00193          	li	gp,14
    80000384:	00000213          	li	tp,0
    80000388:	00002097          	auipc	ra,0x2
    8000038c:	c7808093          	addi	ra,ra,-904 # 80002000 <begin_signature>
    80000390:	0080b703          	ld	a4,8(ra)
    80000394:	00000013          	nop
    80000398:	00000013          	nop
    8000039c:	00070313          	mv	t1,a4
    800003a0:	ff010eb7          	lui	t4,0xff010
    800003a4:	f01e8e9b          	addiw	t4,t4,-255
    800003a8:	010e9e93          	slli	t4,t4,0x10
    800003ac:	f01e8e93          	addi	t4,t4,-255 # ffffffffff00ff01 <_end+0xffffffff7f00dee1>
    800003b0:	010e9e93          	slli	t4,t4,0x10
    800003b4:	f00e8e93          	addi	t4,t4,-256
    800003b8:	13d31063          	bne	t1,t4,800004d8 <fail>
    800003bc:	00120213          	addi	tp,tp,1 # 1 <_start-0x7fffffff>
    800003c0:	00200293          	li	t0,2
    800003c4:	fc5212e3          	bne	tp,t0,80000388 <test_14+0x8>

00000000800003c8 <test_15>:
    800003c8:	00f00193          	li	gp,15
    800003cc:	00000213          	li	tp,0
    800003d0:	00002097          	auipc	ra,0x2
    800003d4:	c3808093          	addi	ra,ra,-968 # 80002008 <tdat2>
    800003d8:	0080b703          	ld	a4,8(ra)
    800003dc:	00010eb7          	lui	t4,0x10
    800003e0:	f01e8e9b          	addiw	t4,t4,-255
    800003e4:	010e9e93          	slli	t4,t4,0x10
    800003e8:	f01e8e93          	addi	t4,t4,-255 # ff01 <_start-0x7fff00ff>
    800003ec:	010e9e93          	slli	t4,t4,0x10
    800003f0:	f01e8e93          	addi	t4,t4,-255
    800003f4:	00ce9e93          	slli	t4,t4,0xc
    800003f8:	ff0e8e93          	addi	t4,t4,-16
    800003fc:	0dd71e63          	bne	a4,t4,800004d8 <fail>
    80000400:	00120213          	addi	tp,tp,1 # 1 <_start-0x7fffffff>
    80000404:	00200293          	li	t0,2
    80000408:	fc5214e3          	bne	tp,t0,800003d0 <test_15+0x8>

000000008000040c <test_16>:
    8000040c:	01000193          	li	gp,16
    80000410:	00000213          	li	tp,0
    80000414:	00002097          	auipc	ra,0x2
    80000418:	bfc08093          	addi	ra,ra,-1028 # 80002010 <tdat3>
    8000041c:	00000013          	nop
    80000420:	0080b703          	ld	a4,8(ra)
    80000424:	ffff0eb7          	lui	t4,0xffff0
    80000428:	0ffe8e9b          	addiw	t4,t4,255
    8000042c:	010e9e93          	slli	t4,t4,0x10
    80000430:	0ffe8e93          	addi	t4,t4,255 # ffffffffffff00ff <_end+0xffffffff7ffee0df>
    80000434:	010e9e93          	slli	t4,t4,0x10
    80000438:	0ffe8e93          	addi	t4,t4,255
    8000043c:	00ce9e93          	slli	t4,t4,0xc
    80000440:	00fe8e93          	addi	t4,t4,15
    80000444:	09d71a63          	bne	a4,t4,800004d8 <fail>
    80000448:	00120213          	addi	tp,tp,1 # 1 <_start-0x7fffffff>
    8000044c:	00200293          	li	t0,2
    80000450:	fc5212e3          	bne	tp,t0,80000414 <test_16+0x8>

0000000080000454 <test_17>:
    80000454:	01100193          	li	gp,17
    80000458:	00000213          	li	tp,0
    8000045c:	00002097          	auipc	ra,0x2
    80000460:	ba408093          	addi	ra,ra,-1116 # 80002000 <begin_signature>
    80000464:	00000013          	nop
    80000468:	00000013          	nop
    8000046c:	0080b703          	ld	a4,8(ra)
    80000470:	ff010eb7          	lui	t4,0xff010
    80000474:	f01e8e9b          	addiw	t4,t4,-255
    80000478:	010e9e93          	slli	t4,t4,0x10
    8000047c:	f01e8e93          	addi	t4,t4,-255 # ffffffffff00ff01 <_end+0xffffffff7f00dee1>
    80000480:	010e9e93          	slli	t4,t4,0x10
    80000484:	f00e8e93          	addi	t4,t4,-256
    80000488:	05d71863          	bne	a4,t4,800004d8 <fail>
    8000048c:	00120213          	addi	tp,tp,1 # 1 <_start-0x7fffffff>
    80000490:	00200293          	li	t0,2
    80000494:	fc5214e3          	bne	tp,t0,8000045c <test_17+0x8>

0000000080000498 <test_18>:
    80000498:	00002297          	auipc	t0,0x2
    8000049c:	b6828293          	addi	t0,t0,-1176 # 80002000 <begin_signature>
    800004a0:	0002b103          	ld	sp,0(t0)
    800004a4:	00200113          	li	sp,2
    800004a8:	00200e93          	li	t4,2
    800004ac:	01200193          	li	gp,18
    800004b0:	03d11463          	bne	sp,t4,800004d8 <fail>

00000000800004b4 <test_19>:
    800004b4:	00002297          	auipc	t0,0x2
    800004b8:	b4c28293          	addi	t0,t0,-1204 # 80002000 <begin_signature>
    800004bc:	0002b103          	ld	sp,0(t0)
    800004c0:	00000013          	nop
    800004c4:	00200113          	li	sp,2
    800004c8:	00200e93          	li	t4,2
    800004cc:	01300193          	li	gp,19
    800004d0:	01d11463          	bne	sp,t4,800004d8 <fail>
    800004d4:	02301063          	bne	zero,gp,800004f4 <pass>

00000000800004d8 <fail>:
    800004d8:	0ff0000f          	fence
    800004dc:	00018063          	beqz	gp,800004dc <fail+0x4>
    800004e0:	00119193          	slli	gp,gp,0x1
    800004e4:	0011e193          	ori	gp,gp,1
    800004e8:	05d00893          	li	a7,93
    800004ec:	00018513          	mv	a0,gp
    800004f0:	00000073          	ecall

00000000800004f4 <pass>:
    800004f4:	0ff0000f          	fence
    800004f8:	00100193          	li	gp,1
    800004fc:	05d00893          	li	a7,93
    80000500:	00000513          	li	a0,0
    80000504:	00000073          	ecall
    80000508:	c0001073          	unimp
    8000050c:	0000                	unimp
    8000050e:	0000                	unimp
    80000510:	0000                	unimp
    80000512:	0000                	unimp
    80000514:	0000                	unimp
    80000516:	0000                	unimp
    80000518:	0000                	unimp
    8000051a:	0000                	unimp
    8000051c:	0000                	unimp
    8000051e:	0000                	unimp
    80000520:	0000                	unimp
    80000522:	0000                	unimp
    80000524:	0000                	unimp
    80000526:	0000                	unimp
    80000528:	0000                	unimp
    8000052a:	0000                	unimp
    8000052c:	0000                	unimp
    8000052e:	0000                	unimp
    80000530:	0000                	unimp
    80000532:	0000                	unimp
    80000534:	0000                	unimp
    80000536:	0000                	unimp
    80000538:	0000                	unimp
    8000053a:	0000                	unimp
    8000053c:	0000                	unimp
    8000053e:	0000                	unimp
    80000540:	0000                	unimp
    80000542:	0000                	unimp
