
rv64um-p-mulw:     file format elf64-littleriscv


Disassembly of section .text.init:

0000000080000000 <_start>:
    80000000:	04c0006f          	j	8000004c <reset_vector>

0000000080000004 <trap_vector>:
    80000004:	34202f73          	csrr	t5,mcause
    80000008:	00800f93          	li	t6,8
    8000000c:	03ff0a63          	beq	t5,t6,80000040 <write_tohost>
    80000010:	00900f93          	li	t6,9
    80000014:	03ff0663          	beq	t5,t6,80000040 <write_tohost>
    80000018:	00b00f93          	li	t6,11
    8000001c:	03ff0263          	beq	t5,t6,80000040 <write_tohost>
    80000020:	80000f17          	auipc	t5,0x80000
    80000024:	fe0f0f13          	addi	t5,t5,-32 # 0 <_start-0x80000000>
    80000028:	000f0463          	beqz	t5,80000030 <trap_vector+0x2c>
    8000002c:	000f0067          	jr	t5
    80000030:	34202f73          	csrr	t5,mcause
    80000034:	000f5463          	bgez	t5,8000003c <handle_exception>
    80000038:	0040006f          	j	8000003c <handle_exception>

000000008000003c <handle_exception>:
    8000003c:	5391e193          	ori	gp,gp,1337

0000000080000040 <write_tohost>:
    80000040:	00001f17          	auipc	t5,0x1
    80000044:	fc3f2023          	sw	gp,-64(t5) # 80001000 <tohost>
    80000048:	ff9ff06f          	j	80000040 <write_tohost>

000000008000004c <reset_vector>:
    8000004c:	f1402573          	csrr	a0,mhartid
    80000050:	00051063          	bnez	a0,80000050 <reset_vector+0x4>
    80000054:	00000297          	auipc	t0,0x0
    80000058:	01028293          	addi	t0,t0,16 # 80000064 <reset_vector+0x18>
    8000005c:	30529073          	csrw	mtvec,t0
    80000060:	18005073          	csrwi	satp,0
    80000064:	00000297          	auipc	t0,0x0
    80000068:	02428293          	addi	t0,t0,36 # 80000088 <reset_vector+0x3c>
    8000006c:	30529073          	csrw	mtvec,t0
    80000070:	0010029b          	addiw	t0,zero,1
    80000074:	03529293          	slli	t0,t0,0x35
    80000078:	fff28293          	addi	t0,t0,-1
    8000007c:	3b029073          	csrw	pmpaddr0,t0
    80000080:	01f00293          	li	t0,31
    80000084:	3a029073          	csrw	pmpcfg0,t0
    80000088:	00000297          	auipc	t0,0x0
    8000008c:	01828293          	addi	t0,t0,24 # 800000a0 <reset_vector+0x54>
    80000090:	30529073          	csrw	mtvec,t0
    80000094:	30205073          	csrwi	medeleg,0
    80000098:	30305073          	csrwi	mideleg,0
    8000009c:	30405073          	csrwi	mie,0
    800000a0:	00000193          	li	gp,0
    800000a4:	00000297          	auipc	t0,0x0
    800000a8:	f6028293          	addi	t0,t0,-160 # 80000004 <trap_vector>
    800000ac:	30529073          	csrw	mtvec,t0
    800000b0:	00100513          	li	a0,1
    800000b4:	01f51513          	slli	a0,a0,0x1f
    800000b8:	00055c63          	bgez	a0,800000d0 <reset_vector+0x84>
    800000bc:	0ff0000f          	fence
    800000c0:	00100193          	li	gp,1
    800000c4:	05d00893          	li	a7,93
    800000c8:	00000513          	li	a0,0
    800000cc:	00000073          	ecall
    800000d0:	80000297          	auipc	t0,0x80000
    800000d4:	f3028293          	addi	t0,t0,-208 # 0 <_start-0x80000000>
    800000d8:	00028e63          	beqz	t0,800000f4 <reset_vector+0xa8>
    800000dc:	10529073          	csrw	stvec,t0
    800000e0:	0000b2b7          	lui	t0,0xb
    800000e4:	1092829b          	addiw	t0,t0,265
    800000e8:	30229073          	csrw	medeleg,t0
    800000ec:	30202373          	csrr	t1,medeleg
    800000f0:	f46296e3          	bne	t0,t1,8000003c <handle_exception>
    800000f4:	30005073          	csrwi	mstatus,0
    800000f8:	00000297          	auipc	t0,0x0
    800000fc:	01428293          	addi	t0,t0,20 # 8000010c <test_2>
    80000100:	34129073          	csrw	mepc,t0
    80000104:	f1402573          	csrr	a0,mhartid
    80000108:	30200073          	mret

000000008000010c <test_2>:
    8000010c:	00000093          	li	ra,0
    80000110:	00000113          	li	sp,0
    80000114:	0220873b          	mulw	a4,ra,sp
    80000118:	00000e93          	li	t4,0
    8000011c:	00200193          	li	gp,2
    80000120:	3dd71263          	bne	a4,t4,800004e4 <fail>

0000000080000124 <test_3>:
    80000124:	00100093          	li	ra,1
    80000128:	00100113          	li	sp,1
    8000012c:	0220873b          	mulw	a4,ra,sp
    80000130:	00100e93          	li	t4,1
    80000134:	00300193          	li	gp,3
    80000138:	3bd71663          	bne	a4,t4,800004e4 <fail>

000000008000013c <test_4>:
    8000013c:	00300093          	li	ra,3
    80000140:	00700113          	li	sp,7
    80000144:	0220873b          	mulw	a4,ra,sp
    80000148:	01500e93          	li	t4,21
    8000014c:	00400193          	li	gp,4
    80000150:	39d71a63          	bne	a4,t4,800004e4 <fail>

0000000080000154 <test_5>:
    80000154:	00000093          	li	ra,0
    80000158:	ffff8137          	lui	sp,0xffff8
    8000015c:	0220873b          	mulw	a4,ra,sp
    80000160:	00000e93          	li	t4,0
    80000164:	00500193          	li	gp,5
    80000168:	37d71e63          	bne	a4,t4,800004e4 <fail>

000000008000016c <test_6>:
    8000016c:	800000b7          	lui	ra,0x80000
    80000170:	00000113          	li	sp,0
    80000174:	0220873b          	mulw	a4,ra,sp
    80000178:	00000e93          	li	t4,0
    8000017c:	00600193          	li	gp,6
    80000180:	37d71263          	bne	a4,t4,800004e4 <fail>

0000000080000184 <test_7>:
    80000184:	800000b7          	lui	ra,0x80000
    80000188:	ffff8137          	lui	sp,0xffff8
    8000018c:	0220873b          	mulw	a4,ra,sp
    80000190:	00000e93          	li	t4,0
    80000194:	00700193          	li	gp,7
    80000198:	35d71663          	bne	a4,t4,800004e4 <fail>

000000008000019c <test_8>:
    8000019c:	00d00093          	li	ra,13
    800001a0:	00b00113          	li	sp,11
    800001a4:	022080bb          	mulw	ra,ra,sp
    800001a8:	08f00e93          	li	t4,143
    800001ac:	00800193          	li	gp,8
    800001b0:	33d09a63          	bne	ra,t4,800004e4 <fail>

00000000800001b4 <test_9>:
    800001b4:	00e00093          	li	ra,14
    800001b8:	00b00113          	li	sp,11
    800001bc:	0220813b          	mulw	sp,ra,sp
    800001c0:	09a00e93          	li	t4,154
    800001c4:	00900193          	li	gp,9
    800001c8:	31d11e63          	bne	sp,t4,800004e4 <fail>

00000000800001cc <test_10>:
    800001cc:	00d00093          	li	ra,13
    800001d0:	021080bb          	mulw	ra,ra,ra
    800001d4:	0a900e93          	li	t4,169
    800001d8:	00a00193          	li	gp,10
    800001dc:	31d09463          	bne	ra,t4,800004e4 <fail>

00000000800001e0 <test_11>:
    800001e0:	00000213          	li	tp,0
    800001e4:	00d00093          	li	ra,13
    800001e8:	00b00113          	li	sp,11
    800001ec:	0220873b          	mulw	a4,ra,sp
    800001f0:	00070313          	mv	t1,a4
    800001f4:	00120213          	addi	tp,tp,1 # 1 <_start-0x7fffffff>
    800001f8:	00200293          	li	t0,2
    800001fc:	fe5214e3          	bne	tp,t0,800001e4 <test_11+0x4>
    80000200:	08f00e93          	li	t4,143
    80000204:	00b00193          	li	gp,11
    80000208:	2dd31e63          	bne	t1,t4,800004e4 <fail>

000000008000020c <test_12>:
    8000020c:	00000213          	li	tp,0
    80000210:	00e00093          	li	ra,14
    80000214:	00b00113          	li	sp,11
    80000218:	0220873b          	mulw	a4,ra,sp
    8000021c:	00000013          	nop
    80000220:	00070313          	mv	t1,a4
    80000224:	00120213          	addi	tp,tp,1 # 1 <_start-0x7fffffff>
    80000228:	00200293          	li	t0,2
    8000022c:	fe5212e3          	bne	tp,t0,80000210 <test_12+0x4>
    80000230:	09a00e93          	li	t4,154
    80000234:	00c00193          	li	gp,12
    80000238:	2bd31663          	bne	t1,t4,800004e4 <fail>

000000008000023c <test_13>:
    8000023c:	00000213          	li	tp,0
    80000240:	00f00093          	li	ra,15
    80000244:	00b00113          	li	sp,11
    80000248:	0220873b          	mulw	a4,ra,sp
    8000024c:	00000013          	nop
    80000250:	00000013          	nop
    80000254:	00070313          	mv	t1,a4
    80000258:	00120213          	addi	tp,tp,1 # 1 <_start-0x7fffffff>
    8000025c:	00200293          	li	t0,2
    80000260:	fe5210e3          	bne	tp,t0,80000240 <test_13+0x4>
    80000264:	0a500e93          	li	t4,165
    80000268:	00d00193          	li	gp,13
    8000026c:	27d31c63          	bne	t1,t4,800004e4 <fail>

0000000080000270 <test_14>:
    80000270:	00000213          	li	tp,0
    80000274:	00d00093          	li	ra,13
    80000278:	00b00113          	li	sp,11
    8000027c:	0220873b          	mulw	a4,ra,sp
    80000280:	00120213          	addi	tp,tp,1 # 1 <_start-0x7fffffff>
    80000284:	00200293          	li	t0,2
    80000288:	fe5216e3          	bne	tp,t0,80000274 <test_14+0x4>
    8000028c:	08f00e93          	li	t4,143
    80000290:	00e00193          	li	gp,14
    80000294:	25d71863          	bne	a4,t4,800004e4 <fail>

0000000080000298 <test_15>:
    80000298:	00000213          	li	tp,0
    8000029c:	00e00093          	li	ra,14
    800002a0:	00b00113          	li	sp,11
    800002a4:	00000013          	nop
    800002a8:	0220873b          	mulw	a4,ra,sp
    800002ac:	00120213          	addi	tp,tp,1 # 1 <_start-0x7fffffff>
    800002b0:	00200293          	li	t0,2
    800002b4:	fe5214e3          	bne	tp,t0,8000029c <test_15+0x4>
    800002b8:	09a00e93          	li	t4,154
    800002bc:	00f00193          	li	gp,15
    800002c0:	23d71263          	bne	a4,t4,800004e4 <fail>

00000000800002c4 <test_16>:
    800002c4:	00000213          	li	tp,0
    800002c8:	00f00093          	li	ra,15
    800002cc:	00b00113          	li	sp,11
    800002d0:	00000013          	nop
    800002d4:	00000013          	nop
    800002d8:	0220873b          	mulw	a4,ra,sp
    800002dc:	00120213          	addi	tp,tp,1 # 1 <_start-0x7fffffff>
    800002e0:	00200293          	li	t0,2
    800002e4:	fe5212e3          	bne	tp,t0,800002c8 <test_16+0x4>
    800002e8:	0a500e93          	li	t4,165
    800002ec:	01000193          	li	gp,16
    800002f0:	1fd71a63          	bne	a4,t4,800004e4 <fail>

00000000800002f4 <test_17>:
    800002f4:	00000213          	li	tp,0
    800002f8:	00d00093          	li	ra,13
    800002fc:	00000013          	nop
    80000300:	00b00113          	li	sp,11
    80000304:	0220873b          	mulw	a4,ra,sp
    80000308:	00120213          	addi	tp,tp,1 # 1 <_start-0x7fffffff>
    8000030c:	00200293          	li	t0,2
    80000310:	fe5214e3          	bne	tp,t0,800002f8 <test_17+0x4>
    80000314:	08f00e93          	li	t4,143
    80000318:	01100193          	li	gp,17
    8000031c:	1dd71463          	bne	a4,t4,800004e4 <fail>

0000000080000320 <test_18>:
    80000320:	00000213          	li	tp,0
    80000324:	00e00093          	li	ra,14
    80000328:	00000013          	nop
    8000032c:	00b00113          	li	sp,11
    80000330:	00000013          	nop
    80000334:	0220873b          	mulw	a4,ra,sp
    80000338:	00120213          	addi	tp,tp,1 # 1 <_start-0x7fffffff>
    8000033c:	00200293          	li	t0,2
    80000340:	fe5212e3          	bne	tp,t0,80000324 <test_18+0x4>
    80000344:	09a00e93          	li	t4,154
    80000348:	01200193          	li	gp,18
    8000034c:	19d71c63          	bne	a4,t4,800004e4 <fail>

0000000080000350 <test_19>:
    80000350:	00000213          	li	tp,0
    80000354:	00f00093          	li	ra,15
    80000358:	00000013          	nop
    8000035c:	00000013          	nop
    80000360:	00b00113          	li	sp,11
    80000364:	0220873b          	mulw	a4,ra,sp
    80000368:	00120213          	addi	tp,tp,1 # 1 <_start-0x7fffffff>
    8000036c:	00200293          	li	t0,2
    80000370:	fe5212e3          	bne	tp,t0,80000354 <test_19+0x4>
    80000374:	0a500e93          	li	t4,165
    80000378:	01300193          	li	gp,19
    8000037c:	17d71463          	bne	a4,t4,800004e4 <fail>

0000000080000380 <test_20>:
    80000380:	00000213          	li	tp,0
    80000384:	00b00113          	li	sp,11
    80000388:	00d00093          	li	ra,13
    8000038c:	0220873b          	mulw	a4,ra,sp
    80000390:	00120213          	addi	tp,tp,1 # 1 <_start-0x7fffffff>
    80000394:	00200293          	li	t0,2
    80000398:	fe5216e3          	bne	tp,t0,80000384 <test_20+0x4>
    8000039c:	08f00e93          	li	t4,143
    800003a0:	01400193          	li	gp,20
    800003a4:	15d71063          	bne	a4,t4,800004e4 <fail>

00000000800003a8 <test_21>:
    800003a8:	00000213          	li	tp,0
    800003ac:	00b00113          	li	sp,11
    800003b0:	00e00093          	li	ra,14
    800003b4:	00000013          	nop
    800003b8:	0220873b          	mulw	a4,ra,sp
    800003bc:	00120213          	addi	tp,tp,1 # 1 <_start-0x7fffffff>
    800003c0:	00200293          	li	t0,2
    800003c4:	fe5214e3          	bne	tp,t0,800003ac <test_21+0x4>
    800003c8:	09a00e93          	li	t4,154
    800003cc:	01500193          	li	gp,21
    800003d0:	11d71a63          	bne	a4,t4,800004e4 <fail>

00000000800003d4 <test_22>:
    800003d4:	00000213          	li	tp,0
    800003d8:	00b00113          	li	sp,11
    800003dc:	00f00093          	li	ra,15
    800003e0:	00000013          	nop
    800003e4:	00000013          	nop
    800003e8:	0220873b          	mulw	a4,ra,sp
    800003ec:	00120213          	addi	tp,tp,1 # 1 <_start-0x7fffffff>
    800003f0:	00200293          	li	t0,2
    800003f4:	fe5212e3          	bne	tp,t0,800003d8 <test_22+0x4>
    800003f8:	0a500e93          	li	t4,165
    800003fc:	01600193          	li	gp,22
    80000400:	0fd71263          	bne	a4,t4,800004e4 <fail>

0000000080000404 <test_23>:
    80000404:	00000213          	li	tp,0
    80000408:	00b00113          	li	sp,11
    8000040c:	00000013          	nop
    80000410:	00d00093          	li	ra,13
    80000414:	0220873b          	mulw	a4,ra,sp
    80000418:	00120213          	addi	tp,tp,1 # 1 <_start-0x7fffffff>
    8000041c:	00200293          	li	t0,2
    80000420:	fe5214e3          	bne	tp,t0,80000408 <test_23+0x4>
    80000424:	08f00e93          	li	t4,143
    80000428:	01700193          	li	gp,23
    8000042c:	0bd71c63          	bne	a4,t4,800004e4 <fail>

0000000080000430 <test_24>:
    80000430:	00000213          	li	tp,0
    80000434:	00b00113          	li	sp,11
    80000438:	00000013          	nop
    8000043c:	00e00093          	li	ra,14
    80000440:	00000013          	nop
    80000444:	0220873b          	mulw	a4,ra,sp
    80000448:	00120213          	addi	tp,tp,1 # 1 <_start-0x7fffffff>
    8000044c:	00200293          	li	t0,2
    80000450:	fe5212e3          	bne	tp,t0,80000434 <test_24+0x4>
    80000454:	09a00e93          	li	t4,154
    80000458:	01800193          	li	gp,24
    8000045c:	09d71463          	bne	a4,t4,800004e4 <fail>

0000000080000460 <test_25>:
    80000460:	00000213          	li	tp,0
    80000464:	00b00113          	li	sp,11
    80000468:	00000013          	nop
    8000046c:	00000013          	nop
    80000470:	00f00093          	li	ra,15
    80000474:	0220873b          	mulw	a4,ra,sp
    80000478:	00120213          	addi	tp,tp,1 # 1 <_start-0x7fffffff>
    8000047c:	00200293          	li	t0,2
    80000480:	fe5212e3          	bne	tp,t0,80000464 <test_25+0x4>
    80000484:	0a500e93          	li	t4,165
    80000488:	01900193          	li	gp,25
    8000048c:	05d71c63          	bne	a4,t4,800004e4 <fail>

0000000080000490 <test_26>:
    80000490:	01f00093          	li	ra,31
    80000494:	0210013b          	mulw	sp,zero,ra
    80000498:	00000e93          	li	t4,0
    8000049c:	01a00193          	li	gp,26
    800004a0:	05d11263          	bne	sp,t4,800004e4 <fail>

00000000800004a4 <test_27>:
    800004a4:	02000093          	li	ra,32
    800004a8:	0200813b          	mulw	sp,ra,zero
    800004ac:	00000e93          	li	t4,0
    800004b0:	01b00193          	li	gp,27
    800004b4:	03d11863          	bne	sp,t4,800004e4 <fail>

00000000800004b8 <test_28>:
    800004b8:	020000bb          	mulw	ra,zero,zero
    800004bc:	00000e93          	li	t4,0
    800004c0:	01c00193          	li	gp,28
    800004c4:	03d09063          	bne	ra,t4,800004e4 <fail>

00000000800004c8 <test_29>:
    800004c8:	02100093          	li	ra,33
    800004cc:	02200113          	li	sp,34
    800004d0:	0220803b          	mulw	zero,ra,sp
    800004d4:	00000e93          	li	t4,0
    800004d8:	01d00193          	li	gp,29
    800004dc:	01d01463          	bne	zero,t4,800004e4 <fail>
    800004e0:	02301063          	bne	zero,gp,80000500 <pass>

00000000800004e4 <fail>:
    800004e4:	0ff0000f          	fence
    800004e8:	00018063          	beqz	gp,800004e8 <fail+0x4>
    800004ec:	00119193          	slli	gp,gp,0x1
    800004f0:	0011e193          	ori	gp,gp,1
    800004f4:	05d00893          	li	a7,93
    800004f8:	00018513          	mv	a0,gp
    800004fc:	00000073          	ecall

0000000080000500 <pass>:
    80000500:	0ff0000f          	fence
    80000504:	00100193          	li	gp,1
    80000508:	05d00893          	li	a7,93
    8000050c:	00000513          	li	a0,0
    80000510:	00000073          	ecall
    80000514:	c0001073          	unimp
    80000518:	0000                	unimp
    8000051a:	0000                	unimp
    8000051c:	0000                	unimp
    8000051e:	0000                	unimp
    80000520:	0000                	unimp
    80000522:	0000                	unimp
    80000524:	0000                	unimp
    80000526:	0000                	unimp
    80000528:	0000                	unimp
    8000052a:	0000                	unimp
    8000052c:	0000                	unimp
    8000052e:	0000                	unimp
    80000530:	0000                	unimp
    80000532:	0000                	unimp
    80000534:	0000                	unimp
    80000536:	0000                	unimp
    80000538:	0000                	unimp
    8000053a:	0000                	unimp
    8000053c:	0000                	unimp
    8000053e:	0000                	unimp
    80000540:	0000                	unimp
    80000542:	0000                	unimp
