
rv64ui-p-sb:     file format elf64-littleriscv


Disassembly of section .text.init:

0000000080000000 <_start>:
    80000000:	04c0006f          	j	8000004c <reset_vector>

0000000080000004 <trap_vector>:
    80000004:	34202f73          	csrr	t5,mcause
    80000008:	00800f93          	li	t6,8
    8000000c:	03ff0a63          	beq	t5,t6,80000040 <write_tohost>
    80000010:	00900f93          	li	t6,9
    80000014:	03ff0663          	beq	t5,t6,80000040 <write_tohost>
    80000018:	00b00f93          	li	t6,11
    8000001c:	03ff0263          	beq	t5,t6,80000040 <write_tohost>
    80000020:	80000f17          	auipc	t5,0x80000
    80000024:	fe0f0f13          	addi	t5,t5,-32 # 0 <_start-0x80000000>
    80000028:	000f0463          	beqz	t5,80000030 <trap_vector+0x2c>
    8000002c:	000f0067          	jr	t5
    80000030:	34202f73          	csrr	t5,mcause
    80000034:	000f5463          	bgez	t5,8000003c <handle_exception>
    80000038:	0040006f          	j	8000003c <handle_exception>

000000008000003c <handle_exception>:
    8000003c:	5391e193          	ori	gp,gp,1337

0000000080000040 <write_tohost>:
    80000040:	00001f17          	auipc	t5,0x1
    80000044:	fc3f2023          	sw	gp,-64(t5) # 80001000 <tohost>
    80000048:	ff9ff06f          	j	80000040 <write_tohost>

000000008000004c <reset_vector>:
    8000004c:	f1402573          	csrr	a0,mhartid
    80000050:	00051063          	bnez	a0,80000050 <reset_vector+0x4>
    80000054:	00000297          	auipc	t0,0x0
    80000058:	01028293          	addi	t0,t0,16 # 80000064 <reset_vector+0x18>
    8000005c:	30529073          	csrw	mtvec,t0
    80000060:	18005073          	csrwi	satp,0
    80000064:	00000297          	auipc	t0,0x0
    80000068:	02428293          	addi	t0,t0,36 # 80000088 <reset_vector+0x3c>
    8000006c:	30529073          	csrw	mtvec,t0
    80000070:	0010029b          	addiw	t0,zero,1
    80000074:	03529293          	slli	t0,t0,0x35
    80000078:	fff28293          	addi	t0,t0,-1
    8000007c:	3b029073          	csrw	pmpaddr0,t0
    80000080:	01f00293          	li	t0,31
    80000084:	3a029073          	csrw	pmpcfg0,t0
    80000088:	00000297          	auipc	t0,0x0
    8000008c:	01828293          	addi	t0,t0,24 # 800000a0 <reset_vector+0x54>
    80000090:	30529073          	csrw	mtvec,t0
    80000094:	30205073          	csrwi	medeleg,0
    80000098:	30305073          	csrwi	mideleg,0
    8000009c:	30405073          	csrwi	mie,0
    800000a0:	00000193          	li	gp,0
    800000a4:	00000297          	auipc	t0,0x0
    800000a8:	f6028293          	addi	t0,t0,-160 # 80000004 <trap_vector>
    800000ac:	30529073          	csrw	mtvec,t0
    800000b0:	00100513          	li	a0,1
    800000b4:	01f51513          	slli	a0,a0,0x1f
    800000b8:	00055c63          	bgez	a0,800000d0 <reset_vector+0x84>
    800000bc:	0ff0000f          	fence
    800000c0:	00100193          	li	gp,1
    800000c4:	05d00893          	li	a7,93
    800000c8:	00000513          	li	a0,0
    800000cc:	00000073          	ecall
    800000d0:	80000297          	auipc	t0,0x80000
    800000d4:	f3028293          	addi	t0,t0,-208 # 0 <_start-0x80000000>
    800000d8:	00028e63          	beqz	t0,800000f4 <reset_vector+0xa8>
    800000dc:	10529073          	csrw	stvec,t0
    800000e0:	0000b2b7          	lui	t0,0xb
    800000e4:	1092829b          	addiw	t0,t0,265
    800000e8:	30229073          	csrw	medeleg,t0
    800000ec:	30202373          	csrr	t1,medeleg
    800000f0:	f46296e3          	bne	t0,t1,8000003c <handle_exception>
    800000f4:	30005073          	csrwi	mstatus,0
    800000f8:	00000297          	auipc	t0,0x0
    800000fc:	01428293          	addi	t0,t0,20 # 8000010c <test_2>
    80000100:	34129073          	csrw	mepc,t0
    80000104:	f1402573          	csrr	a0,mhartid
    80000108:	30200073          	mret

000000008000010c <test_2>:
    8000010c:	00002097          	auipc	ra,0x2
    80000110:	ef408093          	addi	ra,ra,-268 # 80002000 <begin_signature>
    80000114:	faa00113          	li	sp,-86
    80000118:	00208023          	sb	sp,0(ra)
    8000011c:	00008703          	lb	a4,0(ra)
    80000120:	faa00e93          	li	t4,-86
    80000124:	00200193          	li	gp,2
    80000128:	3dd71c63          	bne	a4,t4,80000500 <fail>

000000008000012c <test_3>:
    8000012c:	00002097          	auipc	ra,0x2
    80000130:	ed408093          	addi	ra,ra,-300 # 80002000 <begin_signature>
    80000134:	00000113          	li	sp,0
    80000138:	002080a3          	sb	sp,1(ra)
    8000013c:	00108703          	lb	a4,1(ra)
    80000140:	00000e93          	li	t4,0
    80000144:	00300193          	li	gp,3
    80000148:	3bd71c63          	bne	a4,t4,80000500 <fail>

000000008000014c <test_4>:
    8000014c:	00002097          	auipc	ra,0x2
    80000150:	eb408093          	addi	ra,ra,-332 # 80002000 <begin_signature>
    80000154:	fffff137          	lui	sp,0xfffff
    80000158:	fa01011b          	addiw	sp,sp,-96
    8000015c:	00208123          	sb	sp,2(ra)
    80000160:	00209703          	lh	a4,2(ra)
    80000164:	fffffeb7          	lui	t4,0xfffff
    80000168:	fa0e8e9b          	addiw	t4,t4,-96
    8000016c:	00400193          	li	gp,4
    80000170:	39d71863          	bne	a4,t4,80000500 <fail>

0000000080000174 <test_5>:
    80000174:	00002097          	auipc	ra,0x2
    80000178:	e8c08093          	addi	ra,ra,-372 # 80002000 <begin_signature>
    8000017c:	00a00113          	li	sp,10
    80000180:	002081a3          	sb	sp,3(ra)
    80000184:	00308703          	lb	a4,3(ra)
    80000188:	00a00e93          	li	t4,10
    8000018c:	00500193          	li	gp,5
    80000190:	37d71863          	bne	a4,t4,80000500 <fail>

0000000080000194 <test_6>:
    80000194:	00002097          	auipc	ra,0x2
    80000198:	e7308093          	addi	ra,ra,-397 # 80002007 <tdat8>
    8000019c:	faa00113          	li	sp,-86
    800001a0:	fe208ea3          	sb	sp,-3(ra)
    800001a4:	ffd08703          	lb	a4,-3(ra)
    800001a8:	faa00e93          	li	t4,-86
    800001ac:	00600193          	li	gp,6
    800001b0:	35d71863          	bne	a4,t4,80000500 <fail>

00000000800001b4 <test_7>:
    800001b4:	00002097          	auipc	ra,0x2
    800001b8:	e5308093          	addi	ra,ra,-429 # 80002007 <tdat8>
    800001bc:	00000113          	li	sp,0
    800001c0:	fe208f23          	sb	sp,-2(ra)
    800001c4:	ffe08703          	lb	a4,-2(ra)
    800001c8:	00000e93          	li	t4,0
    800001cc:	00700193          	li	gp,7
    800001d0:	33d71863          	bne	a4,t4,80000500 <fail>

00000000800001d4 <test_8>:
    800001d4:	00002097          	auipc	ra,0x2
    800001d8:	e3308093          	addi	ra,ra,-461 # 80002007 <tdat8>
    800001dc:	fa000113          	li	sp,-96
    800001e0:	fe208fa3          	sb	sp,-1(ra)
    800001e4:	fff08703          	lb	a4,-1(ra)
    800001e8:	fa000e93          	li	t4,-96
    800001ec:	00800193          	li	gp,8
    800001f0:	31d71863          	bne	a4,t4,80000500 <fail>

00000000800001f4 <test_9>:
    800001f4:	00002097          	auipc	ra,0x2
    800001f8:	e1308093          	addi	ra,ra,-493 # 80002007 <tdat8>
    800001fc:	00a00113          	li	sp,10
    80000200:	00208023          	sb	sp,0(ra)
    80000204:	00008703          	lb	a4,0(ra)
    80000208:	00a00e93          	li	t4,10
    8000020c:	00900193          	li	gp,9
    80000210:	2fd71863          	bne	a4,t4,80000500 <fail>

0000000080000214 <test_10>:
    80000214:	00002097          	auipc	ra,0x2
    80000218:	df408093          	addi	ra,ra,-524 # 80002008 <tdat9>
    8000021c:	12345137          	lui	sp,0x12345
    80000220:	6781011b          	addiw	sp,sp,1656
    80000224:	fe008213          	addi	tp,ra,-32
    80000228:	02220023          	sb	sp,32(tp) # 20 <_start-0x7fffffe0>
    8000022c:	00008283          	lb	t0,0(ra)
    80000230:	07800e93          	li	t4,120
    80000234:	00a00193          	li	gp,10
    80000238:	2dd29463          	bne	t0,t4,80000500 <fail>

000000008000023c <test_11>:
    8000023c:	00002097          	auipc	ra,0x2
    80000240:	dcc08093          	addi	ra,ra,-564 # 80002008 <tdat9>
    80000244:	00003137          	lui	sp,0x3
    80000248:	0981011b          	addiw	sp,sp,152
    8000024c:	ffa08093          	addi	ra,ra,-6
    80000250:	002083a3          	sb	sp,7(ra)
    80000254:	00002217          	auipc	tp,0x2
    80000258:	db520213          	addi	tp,tp,-587 # 80002009 <tdat10>
    8000025c:	00020283          	lb	t0,0(tp) # 0 <_start-0x80000000>
    80000260:	f9800e93          	li	t4,-104
    80000264:	00b00193          	li	gp,11
    80000268:	29d29c63          	bne	t0,t4,80000500 <fail>

000000008000026c <test_12>:
    8000026c:	00c00193          	li	gp,12
    80000270:	00000213          	li	tp,0
    80000274:	fdd00093          	li	ra,-35
    80000278:	00002117          	auipc	sp,0x2
    8000027c:	d8810113          	addi	sp,sp,-632 # 80002000 <begin_signature>
    80000280:	00110023          	sb	ra,0(sp)
    80000284:	00010703          	lb	a4,0(sp)
    80000288:	fdd00e93          	li	t4,-35
    8000028c:	27d71a63          	bne	a4,t4,80000500 <fail>
    80000290:	00120213          	addi	tp,tp,1 # 1 <_start-0x7fffffff>
    80000294:	00200293          	li	t0,2
    80000298:	fc521ee3          	bne	tp,t0,80000274 <test_12+0x8>

000000008000029c <test_13>:
    8000029c:	00d00193          	li	gp,13
    800002a0:	00000213          	li	tp,0
    800002a4:	fcd00093          	li	ra,-51
    800002a8:	00002117          	auipc	sp,0x2
    800002ac:	d5810113          	addi	sp,sp,-680 # 80002000 <begin_signature>
    800002b0:	00000013          	nop
    800002b4:	001100a3          	sb	ra,1(sp)
    800002b8:	00110703          	lb	a4,1(sp)
    800002bc:	fcd00e93          	li	t4,-51
    800002c0:	25d71063          	bne	a4,t4,80000500 <fail>
    800002c4:	00120213          	addi	tp,tp,1 # 1 <_start-0x7fffffff>
    800002c8:	00200293          	li	t0,2
    800002cc:	fc521ce3          	bne	tp,t0,800002a4 <test_13+0x8>

00000000800002d0 <test_14>:
    800002d0:	00e00193          	li	gp,14
    800002d4:	00000213          	li	tp,0
    800002d8:	fcc00093          	li	ra,-52
    800002dc:	00002117          	auipc	sp,0x2
    800002e0:	d2410113          	addi	sp,sp,-732 # 80002000 <begin_signature>
    800002e4:	00000013          	nop
    800002e8:	00000013          	nop
    800002ec:	00110123          	sb	ra,2(sp)
    800002f0:	00210703          	lb	a4,2(sp)
    800002f4:	fcc00e93          	li	t4,-52
    800002f8:	21d71463          	bne	a4,t4,80000500 <fail>
    800002fc:	00120213          	addi	tp,tp,1 # 1 <_start-0x7fffffff>
    80000300:	00200293          	li	t0,2
    80000304:	fc521ae3          	bne	tp,t0,800002d8 <test_14+0x8>

0000000080000308 <test_15>:
    80000308:	00f00193          	li	gp,15
    8000030c:	00000213          	li	tp,0
    80000310:	fbc00093          	li	ra,-68
    80000314:	00000013          	nop
    80000318:	00002117          	auipc	sp,0x2
    8000031c:	ce810113          	addi	sp,sp,-792 # 80002000 <begin_signature>
    80000320:	001101a3          	sb	ra,3(sp)
    80000324:	00310703          	lb	a4,3(sp)
    80000328:	fbc00e93          	li	t4,-68
    8000032c:	1dd71a63          	bne	a4,t4,80000500 <fail>
    80000330:	00120213          	addi	tp,tp,1 # 1 <_start-0x7fffffff>
    80000334:	00200293          	li	t0,2
    80000338:	fc521ce3          	bne	tp,t0,80000310 <test_15+0x8>

000000008000033c <test_16>:
    8000033c:	01000193          	li	gp,16
    80000340:	00000213          	li	tp,0
    80000344:	fbb00093          	li	ra,-69
    80000348:	00000013          	nop
    8000034c:	00002117          	auipc	sp,0x2
    80000350:	cb410113          	addi	sp,sp,-844 # 80002000 <begin_signature>
    80000354:	00000013          	nop
    80000358:	00110223          	sb	ra,4(sp)
    8000035c:	00410703          	lb	a4,4(sp)
    80000360:	fbb00e93          	li	t4,-69
    80000364:	19d71e63          	bne	a4,t4,80000500 <fail>
    80000368:	00120213          	addi	tp,tp,1 # 1 <_start-0x7fffffff>
    8000036c:	00200293          	li	t0,2
    80000370:	fc521ae3          	bne	tp,t0,80000344 <test_16+0x8>

0000000080000374 <test_17>:
    80000374:	01100193          	li	gp,17
    80000378:	00000213          	li	tp,0
    8000037c:	fab00093          	li	ra,-85
    80000380:	00000013          	nop
    80000384:	00000013          	nop
    80000388:	00002117          	auipc	sp,0x2
    8000038c:	c7810113          	addi	sp,sp,-904 # 80002000 <begin_signature>
    80000390:	001102a3          	sb	ra,5(sp)
    80000394:	00510703          	lb	a4,5(sp)
    80000398:	fab00e93          	li	t4,-85
    8000039c:	17d71263          	bne	a4,t4,80000500 <fail>
    800003a0:	00120213          	addi	tp,tp,1 # 1 <_start-0x7fffffff>
    800003a4:	00200293          	li	t0,2
    800003a8:	fc521ae3          	bne	tp,t0,8000037c <test_17+0x8>

00000000800003ac <test_18>:
    800003ac:	01200193          	li	gp,18
    800003b0:	00000213          	li	tp,0
    800003b4:	00002117          	auipc	sp,0x2
    800003b8:	c4c10113          	addi	sp,sp,-948 # 80002000 <begin_signature>
    800003bc:	03300093          	li	ra,51
    800003c0:	00110023          	sb	ra,0(sp)
    800003c4:	00010703          	lb	a4,0(sp)
    800003c8:	03300e93          	li	t4,51
    800003cc:	13d71a63          	bne	a4,t4,80000500 <fail>
    800003d0:	00120213          	addi	tp,tp,1 # 1 <_start-0x7fffffff>
    800003d4:	00200293          	li	t0,2
    800003d8:	fc521ee3          	bne	tp,t0,800003b4 <test_18+0x8>

00000000800003dc <test_19>:
    800003dc:	01300193          	li	gp,19
    800003e0:	00000213          	li	tp,0
    800003e4:	00002117          	auipc	sp,0x2
    800003e8:	c1c10113          	addi	sp,sp,-996 # 80002000 <begin_signature>
    800003ec:	02300093          	li	ra,35
    800003f0:	00000013          	nop
    800003f4:	001100a3          	sb	ra,1(sp)
    800003f8:	00110703          	lb	a4,1(sp)
    800003fc:	02300e93          	li	t4,35
    80000400:	11d71063          	bne	a4,t4,80000500 <fail>
    80000404:	00120213          	addi	tp,tp,1 # 1 <_start-0x7fffffff>
    80000408:	00200293          	li	t0,2
    8000040c:	fc521ce3          	bne	tp,t0,800003e4 <test_19+0x8>

0000000080000410 <test_20>:
    80000410:	01400193          	li	gp,20
    80000414:	00000213          	li	tp,0
    80000418:	00002117          	auipc	sp,0x2
    8000041c:	be810113          	addi	sp,sp,-1048 # 80002000 <begin_signature>
    80000420:	02200093          	li	ra,34
    80000424:	00000013          	nop
    80000428:	00000013          	nop
    8000042c:	00110123          	sb	ra,2(sp)
    80000430:	00210703          	lb	a4,2(sp)
    80000434:	02200e93          	li	t4,34
    80000438:	0dd71463          	bne	a4,t4,80000500 <fail>
    8000043c:	00120213          	addi	tp,tp,1 # 1 <_start-0x7fffffff>
    80000440:	00200293          	li	t0,2
    80000444:	fc521ae3          	bne	tp,t0,80000418 <test_20+0x8>

0000000080000448 <test_21>:
    80000448:	01500193          	li	gp,21
    8000044c:	00000213          	li	tp,0
    80000450:	00002117          	auipc	sp,0x2
    80000454:	bb010113          	addi	sp,sp,-1104 # 80002000 <begin_signature>
    80000458:	00000013          	nop
    8000045c:	01200093          	li	ra,18
    80000460:	001101a3          	sb	ra,3(sp)
    80000464:	00310703          	lb	a4,3(sp)
    80000468:	01200e93          	li	t4,18
    8000046c:	09d71a63          	bne	a4,t4,80000500 <fail>
    80000470:	00120213          	addi	tp,tp,1 # 1 <_start-0x7fffffff>
    80000474:	00200293          	li	t0,2
    80000478:	fc521ce3          	bne	tp,t0,80000450 <test_21+0x8>

000000008000047c <test_22>:
    8000047c:	01600193          	li	gp,22
    80000480:	00000213          	li	tp,0
    80000484:	00002117          	auipc	sp,0x2
    80000488:	b7c10113          	addi	sp,sp,-1156 # 80002000 <begin_signature>
    8000048c:	00000013          	nop
    80000490:	01100093          	li	ra,17
    80000494:	00000013          	nop
    80000498:	00110223          	sb	ra,4(sp)
    8000049c:	00410703          	lb	a4,4(sp)
    800004a0:	01100e93          	li	t4,17
    800004a4:	05d71e63          	bne	a4,t4,80000500 <fail>
    800004a8:	00120213          	addi	tp,tp,1 # 1 <_start-0x7fffffff>
    800004ac:	00200293          	li	t0,2
    800004b0:	fc521ae3          	bne	tp,t0,80000484 <test_22+0x8>

00000000800004b4 <test_23>:
    800004b4:	01700193          	li	gp,23
    800004b8:	00000213          	li	tp,0
    800004bc:	00002117          	auipc	sp,0x2
    800004c0:	b4410113          	addi	sp,sp,-1212 # 80002000 <begin_signature>
    800004c4:	00000013          	nop
    800004c8:	00000013          	nop
    800004cc:	00100093          	li	ra,1
    800004d0:	001102a3          	sb	ra,5(sp)
    800004d4:	00510703          	lb	a4,5(sp)
    800004d8:	00100e93          	li	t4,1
    800004dc:	03d71263          	bne	a4,t4,80000500 <fail>
    800004e0:	00120213          	addi	tp,tp,1 # 1 <_start-0x7fffffff>
    800004e4:	00200293          	li	t0,2
    800004e8:	fc521ae3          	bne	tp,t0,800004bc <test_23+0x8>
    800004ec:	0ef00513          	li	a0,239
    800004f0:	00002597          	auipc	a1,0x2
    800004f4:	b1058593          	addi	a1,a1,-1264 # 80002000 <begin_signature>
    800004f8:	00a581a3          	sb	a0,3(a1)
    800004fc:	02301063          	bne	zero,gp,8000051c <pass>

0000000080000500 <fail>:
    80000500:	0ff0000f          	fence
    80000504:	00018063          	beqz	gp,80000504 <fail+0x4>
    80000508:	00119193          	slli	gp,gp,0x1
    8000050c:	0011e193          	ori	gp,gp,1
    80000510:	05d00893          	li	a7,93
    80000514:	00018513          	mv	a0,gp
    80000518:	00000073          	ecall

000000008000051c <pass>:
    8000051c:	0ff0000f          	fence
    80000520:	00100193          	li	gp,1
    80000524:	05d00893          	li	a7,93
    80000528:	00000513          	li	a0,0
    8000052c:	00000073          	ecall
    80000530:	c0001073          	unimp
    80000534:	0000                	unimp
    80000536:	0000                	unimp
    80000538:	0000                	unimp
    8000053a:	0000                	unimp
    8000053c:	0000                	unimp
    8000053e:	0000                	unimp
    80000540:	0000                	unimp
    80000542:	0000                	unimp
