
rv64ui-p-sraw:     file format elf64-littleriscv


Disassembly of section .text.init:

0000000080000000 <_start>:
    80000000:	04c0006f          	j	8000004c <reset_vector>

0000000080000004 <trap_vector>:
    80000004:	34202f73          	csrr	t5,mcause
    80000008:	00800f93          	li	t6,8
    8000000c:	03ff0a63          	beq	t5,t6,80000040 <write_tohost>
    80000010:	00900f93          	li	t6,9
    80000014:	03ff0663          	beq	t5,t6,80000040 <write_tohost>
    80000018:	00b00f93          	li	t6,11
    8000001c:	03ff0263          	beq	t5,t6,80000040 <write_tohost>
    80000020:	80000f17          	auipc	t5,0x80000
    80000024:	fe0f0f13          	addi	t5,t5,-32 # 0 <_start-0x80000000>
    80000028:	000f0463          	beqz	t5,80000030 <trap_vector+0x2c>
    8000002c:	000f0067          	jr	t5
    80000030:	34202f73          	csrr	t5,mcause
    80000034:	000f5463          	bgez	t5,8000003c <handle_exception>
    80000038:	0040006f          	j	8000003c <handle_exception>

000000008000003c <handle_exception>:
    8000003c:	5391e193          	ori	gp,gp,1337

0000000080000040 <write_tohost>:
    80000040:	00001f17          	auipc	t5,0x1
    80000044:	fc3f2023          	sw	gp,-64(t5) # 80001000 <tohost>
    80000048:	ff9ff06f          	j	80000040 <write_tohost>

000000008000004c <reset_vector>:
    8000004c:	f1402573          	csrr	a0,mhartid
    80000050:	00051063          	bnez	a0,80000050 <reset_vector+0x4>
    80000054:	00000297          	auipc	t0,0x0
    80000058:	01028293          	addi	t0,t0,16 # 80000064 <reset_vector+0x18>
    8000005c:	30529073          	csrw	mtvec,t0
    80000060:	18005073          	csrwi	satp,0
    80000064:	00000297          	auipc	t0,0x0
    80000068:	02428293          	addi	t0,t0,36 # 80000088 <reset_vector+0x3c>
    8000006c:	30529073          	csrw	mtvec,t0
    80000070:	0010029b          	addiw	t0,zero,1
    80000074:	03529293          	slli	t0,t0,0x35
    80000078:	fff28293          	addi	t0,t0,-1
    8000007c:	3b029073          	csrw	pmpaddr0,t0
    80000080:	01f00293          	li	t0,31
    80000084:	3a029073          	csrw	pmpcfg0,t0
    80000088:	00000297          	auipc	t0,0x0
    8000008c:	01828293          	addi	t0,t0,24 # 800000a0 <reset_vector+0x54>
    80000090:	30529073          	csrw	mtvec,t0
    80000094:	30205073          	csrwi	medeleg,0
    80000098:	30305073          	csrwi	mideleg,0
    8000009c:	30405073          	csrwi	mie,0
    800000a0:	00000193          	li	gp,0
    800000a4:	00000297          	auipc	t0,0x0
    800000a8:	f6028293          	addi	t0,t0,-160 # 80000004 <trap_vector>
    800000ac:	30529073          	csrw	mtvec,t0
    800000b0:	00100513          	li	a0,1
    800000b4:	01f51513          	slli	a0,a0,0x1f
    800000b8:	00055c63          	bgez	a0,800000d0 <reset_vector+0x84>
    800000bc:	0ff0000f          	fence
    800000c0:	00100193          	li	gp,1
    800000c4:	05d00893          	li	a7,93
    800000c8:	00000513          	li	a0,0
    800000cc:	00000073          	ecall
    800000d0:	80000297          	auipc	t0,0x80000
    800000d4:	f3028293          	addi	t0,t0,-208 # 0 <_start-0x80000000>
    800000d8:	00028e63          	beqz	t0,800000f4 <reset_vector+0xa8>
    800000dc:	10529073          	csrw	stvec,t0
    800000e0:	0000b2b7          	lui	t0,0xb
    800000e4:	1092829b          	addiw	t0,t0,265
    800000e8:	30229073          	csrw	medeleg,t0
    800000ec:	30202373          	csrr	t1,medeleg
    800000f0:	f46296e3          	bne	t0,t1,8000003c <handle_exception>
    800000f4:	30005073          	csrwi	mstatus,0
    800000f8:	00000297          	auipc	t0,0x0
    800000fc:	01428293          	addi	t0,t0,20 # 8000010c <test_2>
    80000100:	34129073          	csrw	mepc,t0
    80000104:	f1402573          	csrr	a0,mhartid
    80000108:	30200073          	mret

000000008000010c <test_2>:
    8000010c:	800000b7          	lui	ra,0x80000
    80000110:	00000113          	li	sp,0
    80000114:	4020d73b          	sraw	a4,ra,sp
    80000118:	80000eb7          	lui	t4,0x80000
    8000011c:	00200193          	li	gp,2
    80000120:	63d71463          	bne	a4,t4,80000748 <fail>

0000000080000124 <test_3>:
    80000124:	800000b7          	lui	ra,0x80000
    80000128:	00100113          	li	sp,1
    8000012c:	4020d73b          	sraw	a4,ra,sp
    80000130:	c0000eb7          	lui	t4,0xc0000
    80000134:	00300193          	li	gp,3
    80000138:	61d71863          	bne	a4,t4,80000748 <fail>

000000008000013c <test_4>:
    8000013c:	800000b7          	lui	ra,0x80000
    80000140:	00700113          	li	sp,7
    80000144:	4020d73b          	sraw	a4,ra,sp
    80000148:	ff000eb7          	lui	t4,0xff000
    8000014c:	00400193          	li	gp,4
    80000150:	5fd71c63          	bne	a4,t4,80000748 <fail>

0000000080000154 <test_5>:
    80000154:	800000b7          	lui	ra,0x80000
    80000158:	00e00113          	li	sp,14
    8000015c:	4020d73b          	sraw	a4,ra,sp
    80000160:	fffe0eb7          	lui	t4,0xfffe0
    80000164:	00500193          	li	gp,5
    80000168:	5fd71063          	bne	a4,t4,80000748 <fail>

000000008000016c <test_6>:
    8000016c:	800000b7          	lui	ra,0x80000
    80000170:	0010809b          	addiw	ra,ra,1
    80000174:	01f00113          	li	sp,31
    80000178:	4020d73b          	sraw	a4,ra,sp
    8000017c:	fff00e93          	li	t4,-1
    80000180:	00600193          	li	gp,6
    80000184:	5dd71263          	bne	a4,t4,80000748 <fail>

0000000080000188 <test_7>:
    80000188:	800000b7          	lui	ra,0x80000
    8000018c:	fff0809b          	addiw	ra,ra,-1
    80000190:	00000113          	li	sp,0
    80000194:	4020d73b          	sraw	a4,ra,sp
    80000198:	80000eb7          	lui	t4,0x80000
    8000019c:	fffe8e9b          	addiw	t4,t4,-1
    800001a0:	00700193          	li	gp,7
    800001a4:	5bd71263          	bne	a4,t4,80000748 <fail>

00000000800001a8 <test_8>:
    800001a8:	800000b7          	lui	ra,0x80000
    800001ac:	fff0809b          	addiw	ra,ra,-1
    800001b0:	00100113          	li	sp,1
    800001b4:	4020d73b          	sraw	a4,ra,sp
    800001b8:	40000eb7          	lui	t4,0x40000
    800001bc:	fffe8e9b          	addiw	t4,t4,-1
    800001c0:	00800193          	li	gp,8
    800001c4:	59d71263          	bne	a4,t4,80000748 <fail>

00000000800001c8 <test_9>:
    800001c8:	800000b7          	lui	ra,0x80000
    800001cc:	fff0809b          	addiw	ra,ra,-1
    800001d0:	00700113          	li	sp,7
    800001d4:	4020d73b          	sraw	a4,ra,sp
    800001d8:	01000eb7          	lui	t4,0x1000
    800001dc:	fffe8e9b          	addiw	t4,t4,-1
    800001e0:	00900193          	li	gp,9
    800001e4:	57d71263          	bne	a4,t4,80000748 <fail>

00000000800001e8 <test_10>:
    800001e8:	800000b7          	lui	ra,0x80000
    800001ec:	fff0809b          	addiw	ra,ra,-1
    800001f0:	00e00113          	li	sp,14
    800001f4:	4020d73b          	sraw	a4,ra,sp
    800001f8:	00020eb7          	lui	t4,0x20
    800001fc:	fffe8e9b          	addiw	t4,t4,-1
    80000200:	00a00193          	li	gp,10
    80000204:	55d71263          	bne	a4,t4,80000748 <fail>

0000000080000208 <test_11>:
    80000208:	800000b7          	lui	ra,0x80000
    8000020c:	fff0809b          	addiw	ra,ra,-1
    80000210:	01f00113          	li	sp,31
    80000214:	4020d73b          	sraw	a4,ra,sp
    80000218:	00000e93          	li	t4,0
    8000021c:	00b00193          	li	gp,11
    80000220:	53d71463          	bne	a4,t4,80000748 <fail>

0000000080000224 <test_12>:
    80000224:	818180b7          	lui	ra,0x81818
    80000228:	1810809b          	addiw	ra,ra,385
    8000022c:	00000113          	li	sp,0
    80000230:	4020d73b          	sraw	a4,ra,sp
    80000234:	81818eb7          	lui	t4,0x81818
    80000238:	181e8e9b          	addiw	t4,t4,385
    8000023c:	00c00193          	li	gp,12
    80000240:	51d71463          	bne	a4,t4,80000748 <fail>

0000000080000244 <test_13>:
    80000244:	818180b7          	lui	ra,0x81818
    80000248:	1810809b          	addiw	ra,ra,385
    8000024c:	00100113          	li	sp,1
    80000250:	4020d73b          	sraw	a4,ra,sp
    80000254:	c0c0ceb7          	lui	t4,0xc0c0c
    80000258:	0c0e8e9b          	addiw	t4,t4,192
    8000025c:	00d00193          	li	gp,13
    80000260:	4fd71463          	bne	a4,t4,80000748 <fail>

0000000080000264 <test_14>:
    80000264:	818180b7          	lui	ra,0x81818
    80000268:	1810809b          	addiw	ra,ra,385
    8000026c:	00700113          	li	sp,7
    80000270:	4020d73b          	sraw	a4,ra,sp
    80000274:	ff030eb7          	lui	t4,0xff030
    80000278:	303e8e9b          	addiw	t4,t4,771
    8000027c:	00e00193          	li	gp,14
    80000280:	4dd71463          	bne	a4,t4,80000748 <fail>

0000000080000284 <test_15>:
    80000284:	818180b7          	lui	ra,0x81818
    80000288:	1810809b          	addiw	ra,ra,385
    8000028c:	00e00113          	li	sp,14
    80000290:	4020d73b          	sraw	a4,ra,sp
    80000294:	fffe0eb7          	lui	t4,0xfffe0
    80000298:	606e8e9b          	addiw	t4,t4,1542
    8000029c:	00f00193          	li	gp,15
    800002a0:	4bd71463          	bne	a4,t4,80000748 <fail>

00000000800002a4 <test_16>:
    800002a4:	818180b7          	lui	ra,0x81818
    800002a8:	1810809b          	addiw	ra,ra,385
    800002ac:	01f00113          	li	sp,31
    800002b0:	4020d73b          	sraw	a4,ra,sp
    800002b4:	fff00e93          	li	t4,-1
    800002b8:	01000193          	li	gp,16
    800002bc:	49d71663          	bne	a4,t4,80000748 <fail>

00000000800002c0 <test_17>:
    800002c0:	818180b7          	lui	ra,0x81818
    800002c4:	1810809b          	addiw	ra,ra,385
    800002c8:	fe000113          	li	sp,-32
    800002cc:	4020d73b          	sraw	a4,ra,sp
    800002d0:	81818eb7          	lui	t4,0x81818
    800002d4:	181e8e9b          	addiw	t4,t4,385
    800002d8:	01100193          	li	gp,17
    800002dc:	47d71663          	bne	a4,t4,80000748 <fail>

00000000800002e0 <test_18>:
    800002e0:	818180b7          	lui	ra,0x81818
    800002e4:	1810809b          	addiw	ra,ra,385
    800002e8:	fe100113          	li	sp,-31
    800002ec:	4020d73b          	sraw	a4,ra,sp
    800002f0:	c0c0ceb7          	lui	t4,0xc0c0c
    800002f4:	0c0e8e9b          	addiw	t4,t4,192
    800002f8:	01200193          	li	gp,18
    800002fc:	45d71663          	bne	a4,t4,80000748 <fail>

0000000080000300 <test_19>:
    80000300:	818180b7          	lui	ra,0x81818
    80000304:	1810809b          	addiw	ra,ra,385
    80000308:	fe700113          	li	sp,-25
    8000030c:	4020d73b          	sraw	a4,ra,sp
    80000310:	ff030eb7          	lui	t4,0xff030
    80000314:	303e8e9b          	addiw	t4,t4,771
    80000318:	01300193          	li	gp,19
    8000031c:	43d71663          	bne	a4,t4,80000748 <fail>

0000000080000320 <test_20>:
    80000320:	818180b7          	lui	ra,0x81818
    80000324:	1810809b          	addiw	ra,ra,385
    80000328:	fee00113          	li	sp,-18
    8000032c:	4020d73b          	sraw	a4,ra,sp
    80000330:	fffe0eb7          	lui	t4,0xfffe0
    80000334:	606e8e9b          	addiw	t4,t4,1542
    80000338:	01400193          	li	gp,20
    8000033c:	41d71663          	bne	a4,t4,80000748 <fail>

0000000080000340 <test_21>:
    80000340:	818180b7          	lui	ra,0x81818
    80000344:	1810809b          	addiw	ra,ra,385
    80000348:	fff00113          	li	sp,-1
    8000034c:	4020d73b          	sraw	a4,ra,sp
    80000350:	fff00e93          	li	t4,-1
    80000354:	01500193          	li	gp,21
    80000358:	3fd71863          	bne	a4,t4,80000748 <fail>

000000008000035c <test_44>:
    8000035c:	fff120b7          	lui	ra,0xfff12
    80000360:	3450809b          	addiw	ra,ra,837
    80000364:	00c09093          	slli	ra,ra,0xc
    80000368:	67808093          	addi	ra,ra,1656 # fffffffffff12678 <_end+0xffffffff7ff10678>
    8000036c:	00000113          	li	sp,0
    80000370:	4020d73b          	sraw	a4,ra,sp
    80000374:	12345eb7          	lui	t4,0x12345
    80000378:	678e8e9b          	addiw	t4,t4,1656
    8000037c:	02c00193          	li	gp,44
    80000380:	3dd71463          	bne	a4,t4,80000748 <fail>

0000000080000384 <test_45>:
    80000384:	fff120b7          	lui	ra,0xfff12
    80000388:	3450809b          	addiw	ra,ra,837
    8000038c:	00c09093          	slli	ra,ra,0xc
    80000390:	67808093          	addi	ra,ra,1656 # fffffffffff12678 <_end+0xffffffff7ff10678>
    80000394:	00400113          	li	sp,4
    80000398:	4020d73b          	sraw	a4,ra,sp
    8000039c:	01234eb7          	lui	t4,0x1234
    800003a0:	567e8e9b          	addiw	t4,t4,1383
    800003a4:	02d00193          	li	gp,45
    800003a8:	3bd71063          	bne	a4,t4,80000748 <fail>

00000000800003ac <test_46>:
    800003ac:	000920b7          	lui	ra,0x92
    800003b0:	3450809b          	addiw	ra,ra,837
    800003b4:	00c09093          	slli	ra,ra,0xc
    800003b8:	67808093          	addi	ra,ra,1656 # 92678 <_start-0x7ff6d988>
    800003bc:	00000113          	li	sp,0
    800003c0:	4020d73b          	sraw	a4,ra,sp
    800003c4:	92345eb7          	lui	t4,0x92345
    800003c8:	678e8e9b          	addiw	t4,t4,1656
    800003cc:	02e00193          	li	gp,46
    800003d0:	37d71c63          	bne	a4,t4,80000748 <fail>

00000000800003d4 <test_47>:
    800003d4:	000920b7          	lui	ra,0x92
    800003d8:	3450809b          	addiw	ra,ra,837
    800003dc:	00c09093          	slli	ra,ra,0xc
    800003e0:	67808093          	addi	ra,ra,1656 # 92678 <_start-0x7ff6d988>
    800003e4:	00400113          	li	sp,4
    800003e8:	4020d73b          	sraw	a4,ra,sp
    800003ec:	f9234eb7          	lui	t4,0xf9234
    800003f0:	567e8e9b          	addiw	t4,t4,1383
    800003f4:	02f00193          	li	gp,47
    800003f8:	35d71863          	bne	a4,t4,80000748 <fail>

00000000800003fc <test_22>:
    800003fc:	800000b7          	lui	ra,0x80000
    80000400:	00700113          	li	sp,7
    80000404:	4020d0bb          	sraw	ra,ra,sp
    80000408:	ff000eb7          	lui	t4,0xff000
    8000040c:	01600193          	li	gp,22
    80000410:	33d09c63          	bne	ra,t4,80000748 <fail>

0000000080000414 <test_23>:
    80000414:	800000b7          	lui	ra,0x80000
    80000418:	00e00113          	li	sp,14
    8000041c:	4020d13b          	sraw	sp,ra,sp
    80000420:	fffe0eb7          	lui	t4,0xfffe0
    80000424:	01700193          	li	gp,23
    80000428:	33d11063          	bne	sp,t4,80000748 <fail>

000000008000042c <test_24>:
    8000042c:	00700093          	li	ra,7
    80000430:	4010d0bb          	sraw	ra,ra,ra
    80000434:	00000e93          	li	t4,0
    80000438:	01800193          	li	gp,24
    8000043c:	31d09663          	bne	ra,t4,80000748 <fail>

0000000080000440 <test_25>:
    80000440:	00000213          	li	tp,0
    80000444:	800000b7          	lui	ra,0x80000
    80000448:	00700113          	li	sp,7
    8000044c:	4020d73b          	sraw	a4,ra,sp
    80000450:	00070313          	mv	t1,a4
    80000454:	00120213          	addi	tp,tp,1 # 1 <_start-0x7fffffff>
    80000458:	00200293          	li	t0,2
    8000045c:	fe5214e3          	bne	tp,t0,80000444 <test_25+0x4>
    80000460:	ff000eb7          	lui	t4,0xff000
    80000464:	01900193          	li	gp,25
    80000468:	2fd31063          	bne	t1,t4,80000748 <fail>

000000008000046c <test_26>:
    8000046c:	00000213          	li	tp,0
    80000470:	800000b7          	lui	ra,0x80000
    80000474:	00e00113          	li	sp,14
    80000478:	4020d73b          	sraw	a4,ra,sp
    8000047c:	00000013          	nop
    80000480:	00070313          	mv	t1,a4
    80000484:	00120213          	addi	tp,tp,1 # 1 <_start-0x7fffffff>
    80000488:	00200293          	li	t0,2
    8000048c:	fe5212e3          	bne	tp,t0,80000470 <test_26+0x4>
    80000490:	fffe0eb7          	lui	t4,0xfffe0
    80000494:	01a00193          	li	gp,26
    80000498:	2bd31863          	bne	t1,t4,80000748 <fail>

000000008000049c <test_27>:
    8000049c:	00000213          	li	tp,0
    800004a0:	800000b7          	lui	ra,0x80000
    800004a4:	01f00113          	li	sp,31
    800004a8:	4020d73b          	sraw	a4,ra,sp
    800004ac:	00000013          	nop
    800004b0:	00000013          	nop
    800004b4:	00070313          	mv	t1,a4
    800004b8:	00120213          	addi	tp,tp,1 # 1 <_start-0x7fffffff>
    800004bc:	00200293          	li	t0,2
    800004c0:	fe5210e3          	bne	tp,t0,800004a0 <test_27+0x4>
    800004c4:	fff00e93          	li	t4,-1
    800004c8:	01b00193          	li	gp,27
    800004cc:	27d31e63          	bne	t1,t4,80000748 <fail>

00000000800004d0 <test_28>:
    800004d0:	00000213          	li	tp,0
    800004d4:	800000b7          	lui	ra,0x80000
    800004d8:	00700113          	li	sp,7
    800004dc:	4020d73b          	sraw	a4,ra,sp
    800004e0:	00120213          	addi	tp,tp,1 # 1 <_start-0x7fffffff>
    800004e4:	00200293          	li	t0,2
    800004e8:	fe5216e3          	bne	tp,t0,800004d4 <test_28+0x4>
    800004ec:	ff000eb7          	lui	t4,0xff000
    800004f0:	01c00193          	li	gp,28
    800004f4:	25d71a63          	bne	a4,t4,80000748 <fail>

00000000800004f8 <test_29>:
    800004f8:	00000213          	li	tp,0
    800004fc:	800000b7          	lui	ra,0x80000
    80000500:	00e00113          	li	sp,14
    80000504:	00000013          	nop
    80000508:	4020d73b          	sraw	a4,ra,sp
    8000050c:	00120213          	addi	tp,tp,1 # 1 <_start-0x7fffffff>
    80000510:	00200293          	li	t0,2
    80000514:	fe5214e3          	bne	tp,t0,800004fc <test_29+0x4>
    80000518:	fffe0eb7          	lui	t4,0xfffe0
    8000051c:	01d00193          	li	gp,29
    80000520:	23d71463          	bne	a4,t4,80000748 <fail>

0000000080000524 <test_30>:
    80000524:	00000213          	li	tp,0
    80000528:	800000b7          	lui	ra,0x80000
    8000052c:	01f00113          	li	sp,31
    80000530:	00000013          	nop
    80000534:	00000013          	nop
    80000538:	4020d73b          	sraw	a4,ra,sp
    8000053c:	00120213          	addi	tp,tp,1 # 1 <_start-0x7fffffff>
    80000540:	00200293          	li	t0,2
    80000544:	fe5212e3          	bne	tp,t0,80000528 <test_30+0x4>
    80000548:	fff00e93          	li	t4,-1
    8000054c:	01e00193          	li	gp,30
    80000550:	1fd71c63          	bne	a4,t4,80000748 <fail>

0000000080000554 <test_31>:
    80000554:	00000213          	li	tp,0
    80000558:	800000b7          	lui	ra,0x80000
    8000055c:	00000013          	nop
    80000560:	00700113          	li	sp,7
    80000564:	4020d73b          	sraw	a4,ra,sp
    80000568:	00120213          	addi	tp,tp,1 # 1 <_start-0x7fffffff>
    8000056c:	00200293          	li	t0,2
    80000570:	fe5214e3          	bne	tp,t0,80000558 <test_31+0x4>
    80000574:	ff000eb7          	lui	t4,0xff000
    80000578:	01f00193          	li	gp,31
    8000057c:	1dd71663          	bne	a4,t4,80000748 <fail>

0000000080000580 <test_32>:
    80000580:	00000213          	li	tp,0
    80000584:	800000b7          	lui	ra,0x80000
    80000588:	00000013          	nop
    8000058c:	00e00113          	li	sp,14
    80000590:	00000013          	nop
    80000594:	4020d73b          	sraw	a4,ra,sp
    80000598:	00120213          	addi	tp,tp,1 # 1 <_start-0x7fffffff>
    8000059c:	00200293          	li	t0,2
    800005a0:	fe5212e3          	bne	tp,t0,80000584 <test_32+0x4>
    800005a4:	fffe0eb7          	lui	t4,0xfffe0
    800005a8:	02000193          	li	gp,32
    800005ac:	19d71e63          	bne	a4,t4,80000748 <fail>

00000000800005b0 <test_33>:
    800005b0:	00000213          	li	tp,0
    800005b4:	800000b7          	lui	ra,0x80000
    800005b8:	00000013          	nop
    800005bc:	00000013          	nop
    800005c0:	01f00113          	li	sp,31
    800005c4:	4020d73b          	sraw	a4,ra,sp
    800005c8:	00120213          	addi	tp,tp,1 # 1 <_start-0x7fffffff>
    800005cc:	00200293          	li	t0,2
    800005d0:	fe5212e3          	bne	tp,t0,800005b4 <test_33+0x4>
    800005d4:	fff00e93          	li	t4,-1
    800005d8:	02100193          	li	gp,33
    800005dc:	17d71663          	bne	a4,t4,80000748 <fail>

00000000800005e0 <test_34>:
    800005e0:	00000213          	li	tp,0
    800005e4:	00700113          	li	sp,7
    800005e8:	800000b7          	lui	ra,0x80000
    800005ec:	4020d73b          	sraw	a4,ra,sp
    800005f0:	00120213          	addi	tp,tp,1 # 1 <_start-0x7fffffff>
    800005f4:	00200293          	li	t0,2
    800005f8:	fe5216e3          	bne	tp,t0,800005e4 <test_34+0x4>
    800005fc:	ff000eb7          	lui	t4,0xff000
    80000600:	02200193          	li	gp,34
    80000604:	15d71263          	bne	a4,t4,80000748 <fail>

0000000080000608 <test_35>:
    80000608:	00000213          	li	tp,0
    8000060c:	00e00113          	li	sp,14
    80000610:	800000b7          	lui	ra,0x80000
    80000614:	00000013          	nop
    80000618:	4020d73b          	sraw	a4,ra,sp
    8000061c:	00120213          	addi	tp,tp,1 # 1 <_start-0x7fffffff>
    80000620:	00200293          	li	t0,2
    80000624:	fe5214e3          	bne	tp,t0,8000060c <test_35+0x4>
    80000628:	fffe0eb7          	lui	t4,0xfffe0
    8000062c:	02300193          	li	gp,35
    80000630:	11d71c63          	bne	a4,t4,80000748 <fail>

0000000080000634 <test_36>:
    80000634:	00000213          	li	tp,0
    80000638:	01f00113          	li	sp,31
    8000063c:	800000b7          	lui	ra,0x80000
    80000640:	00000013          	nop
    80000644:	00000013          	nop
    80000648:	4020d73b          	sraw	a4,ra,sp
    8000064c:	00120213          	addi	tp,tp,1 # 1 <_start-0x7fffffff>
    80000650:	00200293          	li	t0,2
    80000654:	fe5212e3          	bne	tp,t0,80000638 <test_36+0x4>
    80000658:	fff00e93          	li	t4,-1
    8000065c:	02400193          	li	gp,36
    80000660:	0fd71463          	bne	a4,t4,80000748 <fail>

0000000080000664 <test_37>:
    80000664:	00000213          	li	tp,0
    80000668:	00700113          	li	sp,7
    8000066c:	00000013          	nop
    80000670:	800000b7          	lui	ra,0x80000
    80000674:	4020d73b          	sraw	a4,ra,sp
    80000678:	00120213          	addi	tp,tp,1 # 1 <_start-0x7fffffff>
    8000067c:	00200293          	li	t0,2
    80000680:	fe5214e3          	bne	tp,t0,80000668 <test_37+0x4>
    80000684:	ff000eb7          	lui	t4,0xff000
    80000688:	02500193          	li	gp,37
    8000068c:	0bd71e63          	bne	a4,t4,80000748 <fail>

0000000080000690 <test_38>:
    80000690:	00000213          	li	tp,0
    80000694:	00e00113          	li	sp,14
    80000698:	00000013          	nop
    8000069c:	800000b7          	lui	ra,0x80000
    800006a0:	00000013          	nop
    800006a4:	4020d73b          	sraw	a4,ra,sp
    800006a8:	00120213          	addi	tp,tp,1 # 1 <_start-0x7fffffff>
    800006ac:	00200293          	li	t0,2
    800006b0:	fe5212e3          	bne	tp,t0,80000694 <test_38+0x4>
    800006b4:	fffe0eb7          	lui	t4,0xfffe0
    800006b8:	02600193          	li	gp,38
    800006bc:	09d71663          	bne	a4,t4,80000748 <fail>

00000000800006c0 <test_39>:
    800006c0:	00000213          	li	tp,0
    800006c4:	01f00113          	li	sp,31
    800006c8:	00000013          	nop
    800006cc:	00000013          	nop
    800006d0:	800000b7          	lui	ra,0x80000
    800006d4:	4020d73b          	sraw	a4,ra,sp
    800006d8:	00120213          	addi	tp,tp,1 # 1 <_start-0x7fffffff>
    800006dc:	00200293          	li	t0,2
    800006e0:	fe5212e3          	bne	tp,t0,800006c4 <test_39+0x4>
    800006e4:	fff00e93          	li	t4,-1
    800006e8:	02700193          	li	gp,39
    800006ec:	05d71e63          	bne	a4,t4,80000748 <fail>

00000000800006f0 <test_40>:
    800006f0:	00f00093          	li	ra,15
    800006f4:	4010513b          	sraw	sp,zero,ra
    800006f8:	00000e93          	li	t4,0
    800006fc:	02800193          	li	gp,40
    80000700:	05d11463          	bne	sp,t4,80000748 <fail>

0000000080000704 <test_41>:
    80000704:	02000093          	li	ra,32
    80000708:	4000d13b          	sraw	sp,ra,zero
    8000070c:	02000e93          	li	t4,32
    80000710:	02900193          	li	gp,41
    80000714:	03d11a63          	bne	sp,t4,80000748 <fail>

0000000080000718 <test_42>:
    80000718:	400050bb          	sraw	ra,zero,zero
    8000071c:	00000e93          	li	t4,0
    80000720:	02a00193          	li	gp,42
    80000724:	03d09263          	bne	ra,t4,80000748 <fail>

0000000080000728 <test_43>:
    80000728:	40000093          	li	ra,1024
    8000072c:	00001137          	lui	sp,0x1
    80000730:	8001011b          	addiw	sp,sp,-2048
    80000734:	4020d03b          	sraw	zero,ra,sp
    80000738:	00000e93          	li	t4,0
    8000073c:	02b00193          	li	gp,43
    80000740:	01d01463          	bne	zero,t4,80000748 <fail>
    80000744:	02301063          	bne	zero,gp,80000764 <pass>

0000000080000748 <fail>:
    80000748:	0ff0000f          	fence
    8000074c:	00018063          	beqz	gp,8000074c <fail+0x4>
    80000750:	00119193          	slli	gp,gp,0x1
    80000754:	0011e193          	ori	gp,gp,1
    80000758:	05d00893          	li	a7,93
    8000075c:	00018513          	mv	a0,gp
    80000760:	00000073          	ecall

0000000080000764 <pass>:
    80000764:	0ff0000f          	fence
    80000768:	00100193          	li	gp,1
    8000076c:	05d00893          	li	a7,93
    80000770:	00000513          	li	a0,0
    80000774:	00000073          	ecall
    80000778:	c0001073          	unimp
    8000077c:	0000                	unimp
    8000077e:	0000                	unimp
    80000780:	0000                	unimp
    80000782:	0000                	unimp
